SF:/home/rayben/Dropbox/PC/cachygram/niri-bar/src/application.rs
FN:52,_RNvMNtCsgK501w16GVc_8niri_bar11applicationNtB2_11Application12new_with_gtk
FN:557,_RNvMNtCsgK501w16GVc_8niri_bar11applicationNtB2_11Application13monitor_count
FN:567,_RNvMNtCsgK501w16GVc_8niri_bar11applicationNtB2_11Application18get_config_manager
FN:562,_RNvMNtCsgK501w16GVc_8niri_bar11applicationNtB2_11Application18get_logging_config
FN:136,_RNvMNtCsgK501w16GVc_8niri_bar11applicationNtB2_11Application21setup_config_checking
FN:392,_RNvMNtCsgK501w16GVc_8niri_bar11applicationNtB2_11Application22collect_module_configs
FN:352,_RNvMNtCsgK501w16GVc_8niri_bar11applicationNtB2_11Application22collect_module_formats
FN:513,_RNvMNtCsgK501w16GVc_8niri_bar11applicationNtB2_11Application23on_application_activate
FN:226,_RNvMNtCsgK501w16GVc_8niri_bar11applicationNtB2_11Application36reload_configuration_and_update_bars
FN:46,_RNvMNtCsgK501w16GVc_8niri_bar11applicationNtB2_11Application3new
FN:86,_RNvMNtCsgK501w16GVc_8niri_bar11applicationNtB2_11Application3run
FN:143,_RNCNCNvMNtCsgK501w16GVc_8niri_bar11applicationNtB6_11Application21setup_config_checking00B8_
FN:141,_RNCNvMNtCsgK501w16GVc_8niri_bar11applicationNtB4_11Application21setup_config_checking0B6_
FN:196,_RNCNvMNtCsgK501w16GVc_8niri_bar11applicationNtB4_11Application21setup_config_checkings_0B6_
FN:498,_RNCNvMNtCsgK501w16GVc_8niri_bar11applicationNtB4_11Application22collect_module_configs0B6_
FN:499,_RNCNvMNtCsgK501w16GVc_8niri_bar11applicationNtB4_11Application22collect_module_configss_0B6_
FN:258,_RNCNvMNtCsgK501w16GVc_8niri_bar11applicationNtB4_11Application36reload_configuration_and_update_bars0B6_
FN:321,_RNCNvMNtCsgK501w16GVc_8niri_bar11applicationNtB4_11Application36reload_configuration_and_update_barss0_0B6_
FN:289,_RNCNvMNtCsgK501w16GVc_8niri_bar11applicationNtB4_11Application36reload_configuration_and_update_barss_0B6_
FN:96,_RNCNvMNtCsgK501w16GVc_8niri_bar11applicationNtB4_11Application3run0B6_
FN:143,_RNCNCNvMNtCsgmIDG9vGii7_8niri_bar11applicationNtB6_11Application21setup_config_checking00B8_
FN:141,_RNCNvMNtCsgmIDG9vGii7_8niri_bar11applicationNtB4_11Application21setup_config_checking0B6_
FN:196,_RNCNvMNtCsgmIDG9vGii7_8niri_bar11applicationNtB4_11Application21setup_config_checkings_0B6_
FN:498,_RNCNvMNtCsgmIDG9vGii7_8niri_bar11applicationNtB4_11Application22collect_module_configs0B6_
FN:499,_RNCNvMNtCsgmIDG9vGii7_8niri_bar11applicationNtB4_11Application22collect_module_configss_0B6_
FN:258,_RNCNvMNtCsgmIDG9vGii7_8niri_bar11applicationNtB4_11Application36reload_configuration_and_update_bars0B6_
FN:321,_RNCNvMNtCsgmIDG9vGii7_8niri_bar11applicationNtB4_11Application36reload_configuration_and_update_barss0_0B6_
FN:289,_RNCNvMNtCsgmIDG9vGii7_8niri_bar11applicationNtB4_11Application36reload_configuration_and_update_barss_0B6_
FN:96,_RNCNvMNtCsgmIDG9vGii7_8niri_bar11applicationNtB4_11Application3run0B6_
FN:52,_RNvMNtCsgmIDG9vGii7_8niri_bar11applicationNtB2_11Application12new_with_gtk
FN:557,_RNvMNtCsgmIDG9vGii7_8niri_bar11applicationNtB2_11Application13monitor_count
FN:567,_RNvMNtCsgmIDG9vGii7_8niri_bar11applicationNtB2_11Application18get_config_manager
FN:562,_RNvMNtCsgmIDG9vGii7_8niri_bar11applicationNtB2_11Application18get_logging_config
FN:136,_RNvMNtCsgmIDG9vGii7_8niri_bar11applicationNtB2_11Application21setup_config_checking
FN:392,_RNvMNtCsgmIDG9vGii7_8niri_bar11applicationNtB2_11Application22collect_module_configs
FN:352,_RNvMNtCsgmIDG9vGii7_8niri_bar11applicationNtB2_11Application22collect_module_formats
FN:513,_RNvMNtCsgmIDG9vGii7_8niri_bar11applicationNtB2_11Application23on_application_activate
FN:226,_RNvMNtCsgmIDG9vGii7_8niri_bar11applicationNtB2_11Application36reload_configuration_and_update_bars
FN:46,_RNvMNtCsgmIDG9vGii7_8niri_bar11applicationNtB2_11Application3new
FN:86,_RNvMNtCsgmIDG9vGii7_8niri_bar11applicationNtB2_11Application3run
FNDA:275,_RNvMNtCsgK501w16GVc_8niri_bar11applicationNtB2_11Application12new_with_gtk
FNDA:1004,_RNvMNtCsgK501w16GVc_8niri_bar11applicationNtB2_11Application13monitor_count
FNDA:6,_RNvMNtCsgK501w16GVc_8niri_bar11applicationNtB2_11Application18get_config_manager
FNDA:1003,_RNvMNtCsgK501w16GVc_8niri_bar11applicationNtB2_11Application18get_logging_config
FNDA:0,_RNvMNtCsgK501w16GVc_8niri_bar11applicationNtB2_11Application21setup_config_checking
FNDA:0,_RNvMNtCsgK501w16GVc_8niri_bar11applicationNtB2_11Application22collect_module_configs
FNDA:0,_RNvMNtCsgK501w16GVc_8niri_bar11applicationNtB2_11Application22collect_module_formats
FNDA:0,_RNvMNtCsgK501w16GVc_8niri_bar11applicationNtB2_11Application23on_application_activate
FNDA:0,_RNvMNtCsgK501w16GVc_8niri_bar11applicationNtB2_11Application36reload_configuration_and_update_bars
FNDA:12,_RNvMNtCsgK501w16GVc_8niri_bar11applicationNtB2_11Application3new
FNDA:0,_RNvMNtCsgK501w16GVc_8niri_bar11applicationNtB2_11Application3run
FNDA:0,_RNCNCNvMNtCsgK501w16GVc_8niri_bar11applicationNtB6_11Application21setup_config_checking00B8_
FNDA:0,_RNCNvMNtCsgK501w16GVc_8niri_bar11applicationNtB4_11Application21setup_config_checking0B6_
FNDA:0,_RNCNvMNtCsgK501w16GVc_8niri_bar11applicationNtB4_11Application21setup_config_checkings_0B6_
FNDA:0,_RNCNvMNtCsgK501w16GVc_8niri_bar11applicationNtB4_11Application22collect_module_configs0B6_
FNDA:0,_RNCNvMNtCsgK501w16GVc_8niri_bar11applicationNtB4_11Application22collect_module_configss_0B6_
FNDA:0,_RNCNvMNtCsgK501w16GVc_8niri_bar11applicationNtB4_11Application36reload_configuration_and_update_bars0B6_
FNDA:0,_RNCNvMNtCsgK501w16GVc_8niri_bar11applicationNtB4_11Application36reload_configuration_and_update_barss0_0B6_
FNDA:0,_RNCNvMNtCsgK501w16GVc_8niri_bar11applicationNtB4_11Application36reload_configuration_and_update_barss_0B6_
FNDA:0,_RNCNvMNtCsgK501w16GVc_8niri_bar11applicationNtB4_11Application3run0B6_
FNDA:0,_RNCNCNvMNtCsgmIDG9vGii7_8niri_bar11applicationNtB6_11Application21setup_config_checking00B8_
FNDA:0,_RNCNvMNtCsgmIDG9vGii7_8niri_bar11applicationNtB4_11Application21setup_config_checking0B6_
FNDA:0,_RNCNvMNtCsgmIDG9vGii7_8niri_bar11applicationNtB4_11Application21setup_config_checkings_0B6_
FNDA:0,_RNCNvMNtCsgmIDG9vGii7_8niri_bar11applicationNtB4_11Application22collect_module_configs0B6_
FNDA:0,_RNCNvMNtCsgmIDG9vGii7_8niri_bar11applicationNtB4_11Application22collect_module_configss_0B6_
FNDA:0,_RNCNvMNtCsgmIDG9vGii7_8niri_bar11applicationNtB4_11Application36reload_configuration_and_update_bars0B6_
FNDA:0,_RNCNvMNtCsgmIDG9vGii7_8niri_bar11applicationNtB4_11Application36reload_configuration_and_update_barss0_0B6_
FNDA:0,_RNCNvMNtCsgmIDG9vGii7_8niri_bar11applicationNtB4_11Application36reload_configuration_and_update_barss_0B6_
FNDA:0,_RNCNvMNtCsgmIDG9vGii7_8niri_bar11applicationNtB4_11Application3run0B6_
FNDA:0,_RNvMNtCsgmIDG9vGii7_8niri_bar11applicationNtB2_11Application12new_with_gtk
FNDA:0,_RNvMNtCsgmIDG9vGii7_8niri_bar11applicationNtB2_11Application13monitor_count
FNDA:0,_RNvMNtCsgmIDG9vGii7_8niri_bar11applicationNtB2_11Application18get_config_manager
FNDA:0,_RNvMNtCsgmIDG9vGii7_8niri_bar11applicationNtB2_11Application18get_logging_config
FNDA:0,_RNvMNtCsgmIDG9vGii7_8niri_bar11applicationNtB2_11Application21setup_config_checking
FNDA:0,_RNvMNtCsgmIDG9vGii7_8niri_bar11applicationNtB2_11Application22collect_module_configs
FNDA:0,_RNvMNtCsgmIDG9vGii7_8niri_bar11applicationNtB2_11Application22collect_module_formats
FNDA:0,_RNvMNtCsgmIDG9vGii7_8niri_bar11applicationNtB2_11Application23on_application_activate
FNDA:0,_RNvMNtCsgmIDG9vGii7_8niri_bar11applicationNtB2_11Application36reload_configuration_and_update_bars
FNDA:0,_RNvMNtCsgmIDG9vGii7_8niri_bar11applicationNtB2_11Application3new
FNDA:0,_RNvMNtCsgmIDG9vGii7_8niri_bar11applicationNtB2_11Application3run
FNF:20
FNH:5
DA:46,12
DA:47,12
DA:48,12
DA:52,275
DA:53,275
DA:54,275
DA:55,275
DA:56,275
DA:59,275
DA:60,12
DA:61,12
DA:62,12
DA:63,12
DA:64,12
DA:66,263
DA:70,275
DA:73,275
DA:75,275
DA:76,275
DA:77,275
DA:78,275
DA:79,275
DA:80,275
DA:81,275
DA:82,275
DA:83,275
DA:86,0
DA:87,0
DA:89,0
DA:91,0
DA:92,0
DA:93,0
DA:94,0
DA:95,0
DA:96,0
DA:97,0
DA:98,0
DA:100,0
DA:101,0
DA:102,0
DA:103,0
DA:104,0
DA:106,0
DA:109,0
DA:112,0
DA:114,0
DA:116,0
DA:119,0
DA:121,0
DA:124,0
DA:125,0
DA:126,0
DA:128,0
DA:131,0
DA:132,0
DA:133,0
DA:136,0
DA:138,0
DA:141,0
DA:142,0
DA:143,0
DA:144,0
DA:145,0
DA:146,0
DA:147,0
DA:149,0
DA:150,0
DA:152,0
DA:153,0
DA:155,0
DA:158,0
DA:159,0
DA:160,0
DA:161,0
DA:162,0
DA:163,0
DA:166,0
DA:167,0
DA:168,0
DA:169,0
DA:170,0
DA:171,0
DA:172,0
DA:173,0
DA:174,0
DA:175,0
DA:176,0
DA:177,0
DA:180,0
DA:184,0
DA:189,0
DA:190,0
DA:191,0
DA:192,0
DA:194,0
DA:196,0
DA:198,0
DA:199,0
DA:200,0
DA:201,0
DA:203,0
DA:204,0
DA:205,0
DA:206,0
DA:208,0
DA:209,0
DA:210,0
DA:211,0
DA:212,0
DA:213,0
DA:214,0
DA:215,0
DA:216,0
DA:218,0
DA:219,0
DA:221,0
DA:223,0
DA:226,0
DA:227,0
DA:228,0
DA:229,0
DA:230,0
DA:231,0
DA:234,0
DA:235,0
DA:236,0
DA:237,0
DA:242,0
DA:243,0
DA:244,0
DA:245,0
DA:248,0
DA:249,0
DA:250,0
DA:252,0
DA:253,0
DA:254,0
DA:256,0
DA:257,0
DA:258,0
DA:259,0
DA:261,0
DA:262,0
DA:263,0
DA:266,0
DA:269,0
DA:270,0
DA:273,0
DA:275,0
DA:276,0
DA:278,0
DA:279,0
DA:283,0
DA:284,0
DA:286,0
DA:287,0
DA:288,0
DA:289,0
DA:290,0
DA:292,0
DA:293,0
DA:294,0
DA:295,0
DA:296,0
DA:297,0
DA:298,0
DA:299,0
DA:301,0
DA:304,0
DA:305,0
DA:309,0
DA:310,0
DA:311,0
DA:312,0
DA:313,0
DA:314,0
DA:315,0
DA:318,0
DA:319,0
DA:320,0
DA:321,0
DA:322,0
DA:323,0
DA:324,0
DA:325,0
DA:326,0
DA:327,0
DA:328,0
DA:329,0
DA:330,0
DA:332,0
DA:333,0
DA:337,0
DA:338,0
DA:339,0
DA:340,0
DA:342,0
DA:344,0
DA:346,0
DA:347,0
DA:348,0
DA:352,0
DA:353,0
DA:354,0
DA:355,0
DA:356,0
DA:358,0
DA:359,0
DA:361,0
DA:362,0
DA:363,0
DA:364,0
DA:368,0
DA:369,0
DA:370,0
DA:371,0
DA:372,0
DA:373,0
DA:374,0
DA:375,0
DA:376,0
DA:377,0
DA:379,0
DA:380,0
DA:382,0
DA:383,0
DA:384,0
DA:385,0
DA:387,0
DA:388,0
DA:389,0
DA:390,0
DA:392,0
DA:393,0
DA:394,0
DA:395,0
DA:396,0
DA:398,0
DA:399,0
DA:401,0
DA:402,0
DA:403,0
DA:406,0
DA:407,0
DA:408,0
DA:409,0
DA:410,0
DA:411,0
DA:412,0
DA:413,0
DA:414,0
DA:415,0
DA:417,0
DA:418,0
DA:420,0
DA:422,0
DA:424,0
DA:425,0
DA:426,0
DA:427,0
DA:428,0
DA:429,0
DA:430,0
DA:431,0
DA:432,0
DA:433,0
DA:434,0
DA:435,0
DA:436,0
DA:437,0
DA:438,0
DA:439,0
DA:440,0
DA:441,0
DA:442,0
DA:443,0
DA:444,0
DA:445,0
DA:446,0
DA:447,0
DA:448,0
DA:449,0
DA:450,0
DA:451,0
DA:452,0
DA:453,0
DA:454,0
DA:455,0
DA:456,0
DA:457,0
DA:458,0
DA:459,0
DA:460,0
DA:461,0
DA:462,0
DA:463,0
DA:464,0
DA:465,0
DA:466,0
DA:467,0
DA:468,0
DA:470,0
DA:471,0
DA:472,0
DA:474,0
DA:475,0
DA:476,0
DA:477,0
DA:478,0
DA:479,0
DA:480,0
DA:481,0
DA:482,0
DA:483,0
DA:485,0
DA:489,0
DA:490,0
DA:491,0
DA:492,0
DA:494,0
DA:495,0
DA:496,0
DA:497,0
DA:498,0
DA:499,0
DA:500,0
DA:501,0
DA:502,0
DA:503,0
DA:504,0
DA:505,0
DA:506,0
DA:507,0
DA:508,0
DA:509,0
DA:510,0
DA:513,0
DA:514,0
DA:515,0
DA:516,0
DA:517,0
DA:518,0
DA:519,0
DA:522,0
DA:523,0
DA:525,0
DA:526,0
DA:528,0
DA:529,0
DA:530,0
DA:534,0
DA:557,1004
DA:558,1004
DA:559,1004
DA:562,1003
DA:563,1003
DA:564,1003
DA:567,6
DA:568,6
DA:569,6
BRF:0
BRH:0
LF:367
LH:35
end_of_record
SF:/home/rayben/Dropbox/PC/cachygram/niri-bar/src/bar.rs
FN:366,_RNCNvMNtCsgK501w16GVc_8niri_bar3barNtB4_3Bar21update_layout_columnss2_0B6_
FN:367,_RNCNvMNtCsgK501w16GVc_8niri_bar3barNtB4_3Bar21update_layout_columnss3_0B6_
FN:368,_RNCNvMNtCsgK501w16GVc_8niri_bar3barNtB4_3Bar21update_layout_columnss4_0B6_
FN:369,_RNCNvMNtCsgK501w16GVc_8niri_bar3barNtB4_3Bar21update_layout_columnss5_0B6_
FN:371,_RNCNvMNtCsgK501w16GVc_8niri_bar3barNtB4_3Bar21update_layout_columnss7_0B6_
FN:379,_RNCNvMNtCsgK501w16GVc_8niri_bar3barNtB4_3Bar21update_layout_columnssf_0B6_
FN:381,_RNCNvMNtCsgK501w16GVc_8niri_bar3barNtB4_3Bar21update_layout_columnssg_0B6_
FN:447,_RNCNvMNtCsgK501w16GVc_8niri_bar3barNtB4_3Bar21update_layout_columnssh_0B6_
FN:572,_RNvMNtCsgK501w16GVc_8niri_bar3barNtB2_3Bar10get_window
FN:526,_RNvMNtCsgK501w16GVc_8niri_bar3barNtB2_3Bar10is_visible
FN:531,_RNvMNtCsgK501w16GVc_8niri_bar3barNtB2_3Bar10set_height
FN:207,_RNvMNtCsgK501w16GVc_8niri_bar3barNtB2_3Bar12update_theme
FN:577,_RNvMNtCsgK501w16GVc_8niri_bar3barNtB2_3Bar13get_container
FN:103,_RNvMNtCsgK501w16GVc_8niri_bar3barNtB2_3Bar14load_theme_css
FN:582,_RNvMNtCsgK501w16GVc_8niri_bar3barNtB2_3Bar15matches_monitor
FN:521,_RNvMNtCsgK501w16GVc_8niri_bar3barNtB2_3Bar16get_monitor_info
FN:516,_RNvMNtCsgK501w16GVc_8niri_bar3barNtB2_3Bar21get_monitor_connector
FN:300,_RNvMNtCsgK501w16GVc_8niri_bar3barNtB2_3Bar21update_layout_columns
FN:562,_RNvMNtCsgK501w16GVc_8niri_bar3barNtB2_3Bar24update_with_monitor_info
FN:248,_RNvMNtCsgK501w16GVc_8niri_bar3barNtB2_3Bar30update_layout_columns_by_names
FN:24,_RNvMNtCsgK501w16GVc_8niri_bar3barNtB2_3Bar3new
FN:195,_RNvMNtCsgK501w16GVc_8niri_bar3barNtB2_3Bar4hide
FN:183,_RNvMNtCsgK501w16GVc_8niri_bar3barNtB2_3Bar4show
FN:587,_RNvMNtCsgK501w16GVc_8niri_bar3barNtB2_3Bar6get_id
FN:506,_RNvMNtCsgK501w16GVc_8niri_bar3barNtB2_3Bar7destroy
FN:551,_RNvMNtCsgK501w16GVc_8niri_bar3barNtB2_3Bar8set_size
FN:541,_RNvMNtCsgK501w16GVc_8niri_bar3barNtB2_3Bar9set_width
FN:366,_RNCNvMNtCsgmIDG9vGii7_8niri_bar3barNtB4_3Bar21update_layout_columnss2_0B6_
FN:367,_RNCNvMNtCsgmIDG9vGii7_8niri_bar3barNtB4_3Bar21update_layout_columnss3_0B6_
FN:368,_RNCNvMNtCsgmIDG9vGii7_8niri_bar3barNtB4_3Bar21update_layout_columnss4_0B6_
FN:369,_RNCNvMNtCsgmIDG9vGii7_8niri_bar3barNtB4_3Bar21update_layout_columnss5_0B6_
FN:371,_RNCNvMNtCsgmIDG9vGii7_8niri_bar3barNtB4_3Bar21update_layout_columnss7_0B6_
FN:379,_RNCNvMNtCsgmIDG9vGii7_8niri_bar3barNtB4_3Bar21update_layout_columnssf_0B6_
FN:381,_RNCNvMNtCsgmIDG9vGii7_8niri_bar3barNtB4_3Bar21update_layout_columnssg_0B6_
FN:447,_RNCNvMNtCsgmIDG9vGii7_8niri_bar3barNtB4_3Bar21update_layout_columnssh_0B6_
FN:572,_RNvMNtCsgmIDG9vGii7_8niri_bar3barNtB2_3Bar10get_window
FN:526,_RNvMNtCsgmIDG9vGii7_8niri_bar3barNtB2_3Bar10is_visible
FN:531,_RNvMNtCsgmIDG9vGii7_8niri_bar3barNtB2_3Bar10set_height
FN:207,_RNvMNtCsgmIDG9vGii7_8niri_bar3barNtB2_3Bar12update_theme
FN:577,_RNvMNtCsgmIDG9vGii7_8niri_bar3barNtB2_3Bar13get_container
FN:103,_RNvMNtCsgmIDG9vGii7_8niri_bar3barNtB2_3Bar14load_theme_css
FN:582,_RNvMNtCsgmIDG9vGii7_8niri_bar3barNtB2_3Bar15matches_monitor
FN:521,_RNvMNtCsgmIDG9vGii7_8niri_bar3barNtB2_3Bar16get_monitor_info
FN:516,_RNvMNtCsgmIDG9vGii7_8niri_bar3barNtB2_3Bar21get_monitor_connector
FN:300,_RNvMNtCsgmIDG9vGii7_8niri_bar3barNtB2_3Bar21update_layout_columns
FN:562,_RNvMNtCsgmIDG9vGii7_8niri_bar3barNtB2_3Bar24update_with_monitor_info
FN:248,_RNvMNtCsgmIDG9vGii7_8niri_bar3barNtB2_3Bar30update_layout_columns_by_names
FN:24,_RNvMNtCsgmIDG9vGii7_8niri_bar3barNtB2_3Bar3new
FN:195,_RNvMNtCsgmIDG9vGii7_8niri_bar3barNtB2_3Bar4hide
FN:183,_RNvMNtCsgmIDG9vGii7_8niri_bar3barNtB2_3Bar4show
FN:587,_RNvMNtCsgmIDG9vGii7_8niri_bar3barNtB2_3Bar6get_id
FN:506,_RNvMNtCsgmIDG9vGii7_8niri_bar3barNtB2_3Bar7destroy
FN:551,_RNvMNtCsgmIDG9vGii7_8niri_bar3barNtB2_3Bar8set_size
FN:541,_RNvMNtCsgmIDG9vGii7_8niri_bar3barNtB2_3Bar9set_width
FNDA:0,_RNCNvMNtCsgK501w16GVc_8niri_bar3barNtB4_3Bar21update_layout_columnss2_0B6_
FNDA:0,_RNCNvMNtCsgK501w16GVc_8niri_bar3barNtB4_3Bar21update_layout_columnss3_0B6_
FNDA:0,_RNCNvMNtCsgK501w16GVc_8niri_bar3barNtB4_3Bar21update_layout_columnss4_0B6_
FNDA:0,_RNCNvMNtCsgK501w16GVc_8niri_bar3barNtB4_3Bar21update_layout_columnss5_0B6_
FNDA:0,_RNCNvMNtCsgK501w16GVc_8niri_bar3barNtB4_3Bar21update_layout_columnss7_0B6_
FNDA:0,_RNCNvMNtCsgK501w16GVc_8niri_bar3barNtB4_3Bar21update_layout_columnssf_0B6_
FNDA:0,_RNCNvMNtCsgK501w16GVc_8niri_bar3barNtB4_3Bar21update_layout_columnssg_0B6_
FNDA:0,_RNCNvMNtCsgK501w16GVc_8niri_bar3barNtB4_3Bar21update_layout_columnssh_0B6_
FNDA:0,_RNvMNtCsgK501w16GVc_8niri_bar3barNtB2_3Bar10get_window
FNDA:0,_RNvMNtCsgK501w16GVc_8niri_bar3barNtB2_3Bar10is_visible
FNDA:0,_RNvMNtCsgK501w16GVc_8niri_bar3barNtB2_3Bar10set_height
FNDA:0,_RNvMNtCsgK501w16GVc_8niri_bar3barNtB2_3Bar12update_theme
FNDA:0,_RNvMNtCsgK501w16GVc_8niri_bar3barNtB2_3Bar13get_container
FNDA:0,_RNvMNtCsgK501w16GVc_8niri_bar3barNtB2_3Bar14load_theme_css
FNDA:0,_RNvMNtCsgK501w16GVc_8niri_bar3barNtB2_3Bar15matches_monitor
FNDA:0,_RNvMNtCsgK501w16GVc_8niri_bar3barNtB2_3Bar16get_monitor_info
FNDA:0,_RNvMNtCsgK501w16GVc_8niri_bar3barNtB2_3Bar21get_monitor_connector
FNDA:0,_RNvMNtCsgK501w16GVc_8niri_bar3barNtB2_3Bar21update_layout_columns
FNDA:0,_RNvMNtCsgK501w16GVc_8niri_bar3barNtB2_3Bar24update_with_monitor_info
FNDA:0,_RNvMNtCsgK501w16GVc_8niri_bar3barNtB2_3Bar30update_layout_columns_by_names
FNDA:0,_RNvMNtCsgK501w16GVc_8niri_bar3barNtB2_3Bar3new
FNDA:0,_RNvMNtCsgK501w16GVc_8niri_bar3barNtB2_3Bar4hide
FNDA:0,_RNvMNtCsgK501w16GVc_8niri_bar3barNtB2_3Bar4show
FNDA:0,_RNvMNtCsgK501w16GVc_8niri_bar3barNtB2_3Bar6get_id
FNDA:0,_RNvMNtCsgK501w16GVc_8niri_bar3barNtB2_3Bar7destroy
FNDA:0,_RNvMNtCsgK501w16GVc_8niri_bar3barNtB2_3Bar8set_size
FNDA:0,_RNvMNtCsgK501w16GVc_8niri_bar3barNtB2_3Bar9set_width
FNDA:0,_RNCNvMNtCsgmIDG9vGii7_8niri_bar3barNtB4_3Bar21update_layout_columnss2_0B6_
FNDA:0,_RNCNvMNtCsgmIDG9vGii7_8niri_bar3barNtB4_3Bar21update_layout_columnss3_0B6_
FNDA:0,_RNCNvMNtCsgmIDG9vGii7_8niri_bar3barNtB4_3Bar21update_layout_columnss4_0B6_
FNDA:0,_RNCNvMNtCsgmIDG9vGii7_8niri_bar3barNtB4_3Bar21update_layout_columnss5_0B6_
FNDA:0,_RNCNvMNtCsgmIDG9vGii7_8niri_bar3barNtB4_3Bar21update_layout_columnss7_0B6_
FNDA:0,_RNCNvMNtCsgmIDG9vGii7_8niri_bar3barNtB4_3Bar21update_layout_columnssf_0B6_
FNDA:0,_RNCNvMNtCsgmIDG9vGii7_8niri_bar3barNtB4_3Bar21update_layout_columnssg_0B6_
FNDA:0,_RNCNvMNtCsgmIDG9vGii7_8niri_bar3barNtB4_3Bar21update_layout_columnssh_0B6_
FNDA:0,_RNvMNtCsgmIDG9vGii7_8niri_bar3barNtB2_3Bar10get_window
FNDA:0,_RNvMNtCsgmIDG9vGii7_8niri_bar3barNtB2_3Bar10is_visible
FNDA:0,_RNvMNtCsgmIDG9vGii7_8niri_bar3barNtB2_3Bar10set_height
FNDA:0,_RNvMNtCsgmIDG9vGii7_8niri_bar3barNtB2_3Bar12update_theme
FNDA:0,_RNvMNtCsgmIDG9vGii7_8niri_bar3barNtB2_3Bar13get_container
FNDA:0,_RNvMNtCsgmIDG9vGii7_8niri_bar3barNtB2_3Bar14load_theme_css
FNDA:0,_RNvMNtCsgmIDG9vGii7_8niri_bar3barNtB2_3Bar15matches_monitor
FNDA:0,_RNvMNtCsgmIDG9vGii7_8niri_bar3barNtB2_3Bar16get_monitor_info
FNDA:0,_RNvMNtCsgmIDG9vGii7_8niri_bar3barNtB2_3Bar21get_monitor_connector
FNDA:0,_RNvMNtCsgmIDG9vGii7_8niri_bar3barNtB2_3Bar21update_layout_columns
FNDA:0,_RNvMNtCsgmIDG9vGii7_8niri_bar3barNtB2_3Bar24update_with_monitor_info
FNDA:0,_RNvMNtCsgmIDG9vGii7_8niri_bar3barNtB2_3Bar30update_layout_columns_by_names
FNDA:0,_RNvMNtCsgmIDG9vGii7_8niri_bar3barNtB2_3Bar3new
FNDA:0,_RNvMNtCsgmIDG9vGii7_8niri_bar3barNtB2_3Bar4hide
FNDA:0,_RNvMNtCsgmIDG9vGii7_8niri_bar3barNtB2_3Bar4show
FNDA:0,_RNvMNtCsgmIDG9vGii7_8niri_bar3barNtB2_3Bar6get_id
FNDA:0,_RNvMNtCsgmIDG9vGii7_8niri_bar3barNtB2_3Bar7destroy
FNDA:0,_RNvMNtCsgmIDG9vGii7_8niri_bar3barNtB2_3Bar8set_size
FNDA:0,_RNvMNtCsgmIDG9vGii7_8niri_bar3barNtB2_3Bar9set_width
FNF:27
FNH:0
DA:24,0
DA:25,0
DA:26,0
DA:27,0
DA:28,0
DA:29,0
DA:30,0
DA:31,0
DA:36,0
DA:39,0
DA:40,0
DA:41,0
DA:42,0
DA:45,0
DA:46,0
DA:47,0
DA:48,0
DA:49,0
DA:50,0
DA:53,0
DA:56,0
DA:59,0
DA:60,0
DA:61,0
DA:64,0
DA:65,0
DA:66,0
DA:67,0
DA:68,0
DA:69,0
DA:70,0
DA:73,0
DA:75,0
DA:76,0
DA:77,0
DA:78,0
DA:79,0
DA:80,0
DA:81,0
DA:82,0
DA:83,0
DA:85,0
DA:86,0
DA:93,0
DA:94,0
DA:95,0
DA:96,0
DA:97,0
DA:98,0
DA:99,0
DA:100,0
DA:103,0
DA:104,0
DA:107,0
DA:108,0
DA:109,0
DA:110,0
DA:111,0
DA:112,0
DA:114,0
DA:115,0
DA:116,0
DA:117,0
DA:118,0
DA:119,0
DA:120,0
DA:121,0
DA:122,0
DA:123,0
DA:124,0
DA:125,0
DA:126,0
DA:127,0
DA:128,0
DA:129,0
DA:130,0
DA:131,0
DA:132,0
DA:138,0
DA:139,0
DA:140,0
DA:141,0
DA:142,0
DA:144,0
DA:145,0
DA:146,0
DA:151,0
DA:152,0
DA:153,0
DA:154,0
DA:155,0
DA:156,0
DA:157,0
DA:158,0
DA:159,0
DA:160,0
DA:161,0
DA:162,0
DA:163,0
DA:164,0
DA:165,0
DA:166,0
DA:167,0
DA:168,0
DA:169,0
DA:170,0
DA:171,0
DA:172,0
DA:173,0
DA:174,0
DA:179,0
DA:180,0
DA:183,0
DA:184,0
DA:185,0
DA:186,0
DA:189,0
DA:190,0
DA:191,0
DA:192,0
DA:195,0
DA:196,0
DA:197,0
DA:198,0
DA:201,0
DA:202,0
DA:203,0
DA:204,0
DA:207,0
DA:208,0
DA:209,0
DA:215,0
DA:216,0
DA:217,0
DA:220,0
DA:221,0
DA:222,0
DA:225,0
DA:226,0
DA:227,0
DA:228,0
DA:229,0
DA:230,0
DA:231,0
DA:234,0
DA:237,0
DA:238,0
DA:240,0
DA:241,0
DA:245,0
DA:248,0
DA:250,0
DA:251,0
DA:252,0
DA:254,0
DA:255,0
DA:256,0
DA:257,0
DA:258,0
DA:259,0
DA:260,0
DA:261,0
DA:262,0
DA:263,0
DA:264,0
DA:265,0
DA:266,0
DA:267,0
DA:268,0
DA:269,0
DA:270,0
DA:271,0
DA:272,0
DA:273,0
DA:274,0
DA:275,0
DA:276,0
DA:277,0
DA:278,0
DA:279,0
DA:280,0
DA:281,0
DA:282,0
DA:283,0
DA:284,0
DA:285,0
DA:286,0
DA:287,0
DA:288,0
DA:289,0
DA:290,0
DA:291,0
DA:292,0
DA:293,0
DA:294,0
DA:296,0
DA:297,0
DA:300,0
DA:301,0
DA:302,0
DA:303,0
DA:304,0
DA:305,0
DA:307,0
DA:308,0
DA:309,0
DA:311,0
DA:312,0
DA:313,0
DA:314,0
DA:318,0
DA:319,0
DA:320,0
DA:321,0
DA:322,0
DA:323,0
DA:326,0
DA:327,0
DA:330,0
DA:331,0
DA:332,0
DA:333,0
DA:335,0
DA:336,0
DA:337,0
DA:338,0
DA:339,0
DA:343,0
DA:344,0
DA:346,0
DA:349,0
DA:350,0
DA:351,0
DA:355,0
DA:356,0
DA:359,0
DA:360,0
DA:361,0
DA:362,0
DA:363,0
DA:364,0
DA:366,0
DA:367,0
DA:368,0
DA:369,0
DA:370,0
DA:371,0
DA:372,0
DA:373,0
DA:374,0
DA:375,0
DA:376,0
DA:377,0
DA:378,0
DA:379,0
DA:380,0
DA:381,0
DA:382,0
DA:385,0
DA:386,0
DA:387,0
DA:389,0
DA:394,0
DA:395,0
DA:396,0
DA:397,0
DA:398,0
DA:399,0
DA:400,0
DA:401,0
DA:402,0
DA:403,0
DA:404,0
DA:405,0
DA:406,0
DA:409,0
DA:412,0
DA:413,0
DA:414,0
DA:415,0
DA:416,0
DA:418,0
DA:419,0
DA:420,0
DA:421,0
DA:422,0
DA:424,0
DA:426,0
DA:427,0
DA:428,0
DA:429,0
DA:430,0
DA:434,0
DA:435,0
DA:436,0
DA:437,0
DA:438,0
DA:439,0
DA:440,0
DA:441,0
DA:442,0
DA:443,0
DA:446,0
DA:447,0
DA:449,0
DA:451,0
DA:453,0
DA:454,0
DA:455,0
DA:456,0
DA:459,0
DA:460,0
DA:461,0
DA:462,0
DA:464,0
DA:466,0
DA:467,0
DA:468,0
DA:469,0
DA:472,0
DA:473,0
DA:474,0
DA:475,0
DA:476,0
DA:479,0
DA:480,0
DA:482,0
DA:483,0
DA:484,0
DA:485,0
DA:486,0
DA:488,0
DA:489,0
DA:490,0
DA:491,0
DA:492,0
DA:493,0
DA:497,0
DA:499,0
DA:502,0
DA:503,0
DA:506,0
DA:507,0
DA:508,0
DA:511,0
DA:512,0
DA:513,0
DA:516,0
DA:517,0
DA:518,0
DA:521,0
DA:522,0
DA:523,0
DA:526,0
DA:527,0
DA:528,0
DA:531,0
DA:532,0
DA:533,0
DA:537,0
DA:538,0
DA:541,0
DA:542,0
DA:543,0
DA:547,0
DA:548,0
DA:551,0
DA:552,0
DA:553,0
DA:558,0
DA:559,0
DA:562,0
DA:563,0
DA:564,0
DA:567,0
DA:568,0
DA:569,0
DA:572,0
DA:573,0
DA:574,0
DA:577,0
DA:578,0
DA:579,0
DA:582,0
DA:583,0
DA:584,0
DA:587,0
DA:588,0
DA:589,0
BRF:0
BRH:0
LF:397
LH:0
end_of_record
SF:/home/rayben/Dropbox/PC/cachygram/niri-bar/src/config.rs
FN:370,_RNvMs2_NtCsgK501w16GVc_8niri_bar6configNtB5_13ConfigManager10get_config
FN:673,_RNvMs2_NtCsgK501w16GVc_8niri_bar6configNtB5_13ConfigManager11get_layouts
FN:499,_RNvMs2_NtCsgK501w16GVc_8niri_bar6configNtB5_13ConfigManager12parse_config
FN:375,_RNvMs2_NtCsgK501w16GVc_8niri_bar6configNtB5_13ConfigManager14get_config_ref
FN:681,_RNvMs2_NtCsgK501w16GVc_8niri_bar6configNtB5_13ConfigManager15matches_pattern
FN:512,_RNvMs2_NtCsgK501w16GVc_8niri_bar6configNtB5_13ConfigManager15validate_config
FN:528,_RNvMs2_NtCsgK501w16GVc_8niri_bar6configNtB5_13ConfigManager16basic_validation
FN:665,_RNvMs2_NtCsgK501w16GVc_8niri_bar6configNtB5_13ConfigManager18get_global_modules
FN:602,_RNvMs2_NtCsgK501w16GVc_8niri_bar6configNtB5_13ConfigManager18get_monitor_layout
FN:385,_RNvMs2_NtCsgK501w16GVc_8niri_bar6configNtB5_13ConfigManager18handle_config_load
FN:558,_RNvMs2_NtCsgK501w16GVc_8niri_bar6configNtB5_13ConfigManager18is_monitor_enabled
FN:634,_RNvMs2_NtCsgK501w16GVc_8niri_bar6configNtB5_13ConfigManager19get_monitor_modules
FN:461,_RNvMs2_NtCsgK501w16GVc_8niri_bar6configNtB5_13ConfigManager19handle_config_error
FN:584,_RNvMs2_NtCsgK501w16GVc_8niri_bar6configNtB5_13ConfigManager19pattern_specificity
FN:423,_RNvMs2_NtCsgK501w16GVc_8niri_bar6configNtB5_13ConfigManager20handle_config_change
FN:322,_RNvMs2_NtCsgK501w16GVc_8niri_bar6configNtB5_13ConfigManager3new
FN:333,_RNvMs2_NtCsgK501w16GVc_8niri_bar6configNtB5_13ConfigManager5start
FN:380,_RNvMs2_NtCsgK501w16GVc_8niri_bar6configNtB5_13ConfigManager9subscribe
FN:288,_RNvNtCsgK501w16GVc_8niri_bar6config12default_true
FN:240,_RNvNtCsgK501w16GVc_8niri_bar6config13default_theme
FN:195,_RNvNtCsgK501w16GVc_8niri_bar6config14default_filter
FN:198,_RNvNtCsgK501w16GVc_8niri_bar6config14default_resize
FN:268,_RNvNtCsgK501w16GVc_8niri_bar6config15default_enabled
FN:201,_RNvNtCsgK501w16GVc_8niri_bar6config18default_fill_color
FN:284,_RNvNtCsgK501w16GVc_8niri_bar6config18default_log_format
FN:272,_RNvNtCsgK501w16GVc_8niri_bar6config22default_logging_config
FN:192,_RNvNtCsgK501w16GVc_8niri_bar6config22default_transition_fps
FN:189,_RNvNtCsgK501w16GVc_8niri_bar6config23default_transition_step
FN:183,_RNvNtCsgK501w16GVc_8niri_bar6config23default_transition_type
FN:186,_RNvNtCsgK501w16GVc_8niri_bar6config27default_transition_duration
FN:30,_RNvXNtCsgK501w16GVc_8niri_bar6configNtB2_9TextAlignNtNtCs66KPHxksi63_4core7default7Default7default
FN:108,_RNvXs0_NtCsgK501w16GVc_8niri_bar6configNtB5_20ColumnOverflowPolicyNtNtCs66KPHxksi63_4core7default7Default7default
FN:311,_RNvXs1_NtCsgK501w16GVc_8niri_bar6configNtB5_13ConfigManagerNtNtCs66KPHxksi63_4core5clone5Clone5clone
FN:710,_RNvXs3_NtCsgK501w16GVc_8niri_bar6configNtB5_13ConfigManagerNtNtCs66KPHxksi63_4core7default7Default7default
FN:45,_RNvXs_NtCsgK501w16GVc_8niri_bar6configNtB4_11DisplayModeNtNtCs66KPHxksi63_4core7default7Default7default
FN:611,_RNCNvMs2_NtCsgK501w16GVc_8niri_bar6configNtB7_13ConfigManager18get_monitor_layout0B9_
FN:615,_RNCNvMs2_NtCsgK501w16GVc_8niri_bar6configNtB7_13ConfigManager18get_monitor_layouts0_0B9_
FN:612,_RNCNvMs2_NtCsgK501w16GVc_8niri_bar6configNtB7_13ConfigManager18get_monitor_layouts_0B9_
FN:344,_RNCNCNvMs2_NtCsgK501w16GVc_8niri_bar6configNtB9_13ConfigManager5start00Bb_
FN:357,_RNCNCNvMs2_NtCsgK501w16GVc_8niri_bar6configNtB9_13ConfigManager5start0s0_0Bb_
FN:351,_RNCNCNvMs2_NtCsgK501w16GVc_8niri_bar6configNtB9_13ConfigManager5start0s_0Bb_
FN:333,_RNCNvMs2_NtCsgK501w16GVc_8niri_bar6configNtB7_13ConfigManager5start0B9_
FN:344,_RNCNCNvMs2_NtCsgK501w16GVc_8niri_bar6configNtB9_13ConfigManager5start00Cs3DyeWZuFwsl_12config_tests
FN:357,_RNCNCNvMs2_NtCsgK501w16GVc_8niri_bar6configNtB9_13ConfigManager5start0s0_0Cs3DyeWZuFwsl_12config_tests
FN:351,_RNCNCNvMs2_NtCsgK501w16GVc_8niri_bar6configNtB9_13ConfigManager5start0s_0Cs3DyeWZuFwsl_12config_tests
FN:333,_RNCNvMs2_NtCsgK501w16GVc_8niri_bar6configNtB7_13ConfigManager5start0Cs3DyeWZuFwsl_12config_tests
FN:344,_RNCNCNvMs2_NtCsgmIDG9vGii7_8niri_bar6configNtB9_13ConfigManager5start00Bb_
FN:357,_RNCNCNvMs2_NtCsgmIDG9vGii7_8niri_bar6configNtB9_13ConfigManager5start0s0_0Bb_
FN:351,_RNCNCNvMs2_NtCsgmIDG9vGii7_8niri_bar6configNtB9_13ConfigManager5start0s_0Bb_
FN:611,_RNCNvMs2_NtCsgmIDG9vGii7_8niri_bar6configNtB7_13ConfigManager18get_monitor_layout0B9_
FN:615,_RNCNvMs2_NtCsgmIDG9vGii7_8niri_bar6configNtB7_13ConfigManager18get_monitor_layouts0_0B9_
FN:612,_RNCNvMs2_NtCsgmIDG9vGii7_8niri_bar6configNtB7_13ConfigManager18get_monitor_layouts_0B9_
FN:333,_RNCNvMs2_NtCsgmIDG9vGii7_8niri_bar6configNtB7_13ConfigManager5start0B9_
FN:370,_RNvMs2_NtCsgmIDG9vGii7_8niri_bar6configNtB5_13ConfigManager10get_config
FN:673,_RNvMs2_NtCsgmIDG9vGii7_8niri_bar6configNtB5_13ConfigManager11get_layouts
FN:499,_RNvMs2_NtCsgmIDG9vGii7_8niri_bar6configNtB5_13ConfigManager12parse_config
FN:375,_RNvMs2_NtCsgmIDG9vGii7_8niri_bar6configNtB5_13ConfigManager14get_config_ref
FN:681,_RNvMs2_NtCsgmIDG9vGii7_8niri_bar6configNtB5_13ConfigManager15matches_pattern
FN:512,_RNvMs2_NtCsgmIDG9vGii7_8niri_bar6configNtB5_13ConfigManager15validate_config
FN:528,_RNvMs2_NtCsgmIDG9vGii7_8niri_bar6configNtB5_13ConfigManager16basic_validation
FN:665,_RNvMs2_NtCsgmIDG9vGii7_8niri_bar6configNtB5_13ConfigManager18get_global_modules
FN:602,_RNvMs2_NtCsgmIDG9vGii7_8niri_bar6configNtB5_13ConfigManager18get_monitor_layout
FN:385,_RNvMs2_NtCsgmIDG9vGii7_8niri_bar6configNtB5_13ConfigManager18handle_config_load
FN:558,_RNvMs2_NtCsgmIDG9vGii7_8niri_bar6configNtB5_13ConfigManager18is_monitor_enabled
FN:634,_RNvMs2_NtCsgmIDG9vGii7_8niri_bar6configNtB5_13ConfigManager19get_monitor_modules
FN:461,_RNvMs2_NtCsgmIDG9vGii7_8niri_bar6configNtB5_13ConfigManager19handle_config_error
FN:584,_RNvMs2_NtCsgmIDG9vGii7_8niri_bar6configNtB5_13ConfigManager19pattern_specificity
FN:423,_RNvMs2_NtCsgmIDG9vGii7_8niri_bar6configNtB5_13ConfigManager20handle_config_change
FN:322,_RNvMs2_NtCsgmIDG9vGii7_8niri_bar6configNtB5_13ConfigManager3new
FN:333,_RNvMs2_NtCsgmIDG9vGii7_8niri_bar6configNtB5_13ConfigManager5start
FN:380,_RNvMs2_NtCsgmIDG9vGii7_8niri_bar6configNtB5_13ConfigManager9subscribe
FN:288,_RNvNtCsgmIDG9vGii7_8niri_bar6config12default_true
FN:240,_RNvNtCsgmIDG9vGii7_8niri_bar6config13default_theme
FN:195,_RNvNtCsgmIDG9vGii7_8niri_bar6config14default_filter
FN:198,_RNvNtCsgmIDG9vGii7_8niri_bar6config14default_resize
FN:268,_RNvNtCsgmIDG9vGii7_8niri_bar6config15default_enabled
FN:201,_RNvNtCsgmIDG9vGii7_8niri_bar6config18default_fill_color
FN:284,_RNvNtCsgmIDG9vGii7_8niri_bar6config18default_log_format
FN:272,_RNvNtCsgmIDG9vGii7_8niri_bar6config22default_logging_config
FN:192,_RNvNtCsgmIDG9vGii7_8niri_bar6config22default_transition_fps
FN:189,_RNvNtCsgmIDG9vGii7_8niri_bar6config23default_transition_step
FN:183,_RNvNtCsgmIDG9vGii7_8niri_bar6config23default_transition_type
FN:186,_RNvNtCsgmIDG9vGii7_8niri_bar6config27default_transition_duration
FN:30,_RNvXNtCsgmIDG9vGii7_8niri_bar6configNtB2_9TextAlignNtNtCs66KPHxksi63_4core7default7Default7default
FN:108,_RNvXs0_NtCsgmIDG9vGii7_8niri_bar6configNtB5_20ColumnOverflowPolicyNtNtCs66KPHxksi63_4core7default7Default7default
FN:311,_RNvXs1_NtCsgmIDG9vGii7_8niri_bar6configNtB5_13ConfigManagerNtNtCs66KPHxksi63_4core5clone5Clone5clone
FN:710,_RNvXs3_NtCsgmIDG9vGii7_8niri_bar6configNtB5_13ConfigManagerNtNtCs66KPHxksi63_4core7default7Default7default
FN:45,_RNvXs_NtCsgmIDG9vGii7_8niri_bar6configNtB4_11DisplayModeNtNtCs66KPHxksi63_4core7default7Default7default
FNDA:9,_RNvMs2_NtCsgK501w16GVc_8niri_bar6configNtB5_13ConfigManager10get_config
FNDA:3,_RNvMs2_NtCsgK501w16GVc_8niri_bar6configNtB5_13ConfigManager11get_layouts
FNDA:9,_RNvMs2_NtCsgK501w16GVc_8niri_bar6configNtB5_13ConfigManager12parse_config
FNDA:0,_RNvMs2_NtCsgK501w16GVc_8niri_bar6configNtB5_13ConfigManager14get_config_ref
FNDA:304,_RNvMs2_NtCsgK501w16GVc_8niri_bar6configNtB5_13ConfigManager15matches_pattern
FNDA:9,_RNvMs2_NtCsgK501w16GVc_8niri_bar6configNtB5_13ConfigManager15validate_config
FNDA:12,_RNvMs2_NtCsgK501w16GVc_8niri_bar6configNtB5_13ConfigManager16basic_validation
FNDA:3,_RNvMs2_NtCsgK501w16GVc_8niri_bar6configNtB5_13ConfigManager18get_global_modules
FNDA:0,_RNvMs2_NtCsgK501w16GVc_8niri_bar6configNtB5_13ConfigManager18get_monitor_layout
FNDA:1,_RNvMs2_NtCsgK501w16GVc_8niri_bar6configNtB5_13ConfigManager18handle_config_load
FNDA:9,_RNvMs2_NtCsgK501w16GVc_8niri_bar6configNtB5_13ConfigManager18is_monitor_enabled
FNDA:1,_RNvMs2_NtCsgK501w16GVc_8niri_bar6configNtB5_13ConfigManager19get_monitor_modules
FNDA:0,_RNvMs2_NtCsgK501w16GVc_8niri_bar6configNtB5_13ConfigManager19handle_config_error
FNDA:536,_RNvMs2_NtCsgK501w16GVc_8niri_bar6configNtB5_13ConfigManager19pattern_specificity
FNDA:0,_RNvMs2_NtCsgK501w16GVc_8niri_bar6configNtB5_13ConfigManager20handle_config_change
FNDA:284,_RNvMs2_NtCsgK501w16GVc_8niri_bar6configNtB5_13ConfigManager3new
FNDA:1,_RNvMs2_NtCsgK501w16GVc_8niri_bar6configNtB5_13ConfigManager5start
FNDA:2,_RNvMs2_NtCsgK501w16GVc_8niri_bar6configNtB5_13ConfigManager9subscribe
FNDA:36,_RNvNtCsgK501w16GVc_8niri_bar6config12default_true
FNDA:7,_RNvNtCsgK501w16GVc_8niri_bar6config13default_theme
FNDA:0,_RNvNtCsgK501w16GVc_8niri_bar6config14default_filter
FNDA:0,_RNvNtCsgK501w16GVc_8niri_bar6config14default_resize
FNDA:7,_RNvNtCsgK501w16GVc_8niri_bar6config15default_enabled
FNDA:0,_RNvNtCsgK501w16GVc_8niri_bar6config18default_fill_color
FNDA:12,_RNvNtCsgK501w16GVc_8niri_bar6config18default_log_format
FNDA:0,_RNvNtCsgK501w16GVc_8niri_bar6config22default_logging_config
FNDA:0,_RNvNtCsgK501w16GVc_8niri_bar6config22default_transition_fps
FNDA:0,_RNvNtCsgK501w16GVc_8niri_bar6config23default_transition_step
FNDA:0,_RNvNtCsgK501w16GVc_8niri_bar6config23default_transition_type
FNDA:0,_RNvNtCsgK501w16GVc_8niri_bar6config27default_transition_duration
FNDA:0,_RNvXNtCsgK501w16GVc_8niri_bar6configNtB2_9TextAlignNtNtCs66KPHxksi63_4core7default7Default7default
FNDA:1,_RNvXs0_NtCsgK501w16GVc_8niri_bar6configNtB5_20ColumnOverflowPolicyNtNtCs66KPHxksi63_4core7default7Default7default
FNDA:0,_RNvXs1_NtCsgK501w16GVc_8niri_bar6configNtB5_13ConfigManagerNtNtCs66KPHxksi63_4core5clone5Clone5clone
FNDA:0,_RNvXs3_NtCsgK501w16GVc_8niri_bar6configNtB5_13ConfigManagerNtNtCs66KPHxksi63_4core7default7Default7default
FNDA:0,_RNvXs_NtCsgK501w16GVc_8niri_bar6configNtB4_11DisplayModeNtNtCs66KPHxksi63_4core7default7Default7default
FNDA:0,_RNCNvMs2_NtCsgK501w16GVc_8niri_bar6configNtB7_13ConfigManager18get_monitor_layout0B9_
FNDA:0,_RNCNvMs2_NtCsgK501w16GVc_8niri_bar6configNtB7_13ConfigManager18get_monitor_layouts0_0B9_
FNDA:0,_RNCNvMs2_NtCsgK501w16GVc_8niri_bar6configNtB7_13ConfigManager18get_monitor_layouts_0B9_
FNDA:0,_RNCNCNvMs2_NtCsgK501w16GVc_8niri_bar6configNtB9_13ConfigManager5start00Bb_
FNDA:0,_RNCNCNvMs2_NtCsgK501w16GVc_8niri_bar6configNtB9_13ConfigManager5start0s0_0Bb_
FNDA:0,_RNCNCNvMs2_NtCsgK501w16GVc_8niri_bar6configNtB9_13ConfigManager5start0s_0Bb_
FNDA:0,_RNCNvMs2_NtCsgK501w16GVc_8niri_bar6configNtB7_13ConfigManager5start0B9_
FNDA:1,_RNCNCNvMs2_NtCsgK501w16GVc_8niri_bar6configNtB9_13ConfigManager5start00Cs3DyeWZuFwsl_12config_tests
FNDA:0,_RNCNCNvMs2_NtCsgK501w16GVc_8niri_bar6configNtB9_13ConfigManager5start0s0_0Cs3DyeWZuFwsl_12config_tests
FNDA:0,_RNCNCNvMs2_NtCsgK501w16GVc_8niri_bar6configNtB9_13ConfigManager5start0s_0Cs3DyeWZuFwsl_12config_tests
FNDA:1,_RNCNvMs2_NtCsgK501w16GVc_8niri_bar6configNtB7_13ConfigManager5start0Cs3DyeWZuFwsl_12config_tests
FNDA:0,_RNCNCNvMs2_NtCsgmIDG9vGii7_8niri_bar6configNtB9_13ConfigManager5start00Bb_
FNDA:0,_RNCNCNvMs2_NtCsgmIDG9vGii7_8niri_bar6configNtB9_13ConfigManager5start0s0_0Bb_
FNDA:0,_RNCNCNvMs2_NtCsgmIDG9vGii7_8niri_bar6configNtB9_13ConfigManager5start0s_0Bb_
FNDA:0,_RNCNvMs2_NtCsgmIDG9vGii7_8niri_bar6configNtB7_13ConfigManager18get_monitor_layout0B9_
FNDA:0,_RNCNvMs2_NtCsgmIDG9vGii7_8niri_bar6configNtB7_13ConfigManager18get_monitor_layouts0_0B9_
FNDA:0,_RNCNvMs2_NtCsgmIDG9vGii7_8niri_bar6configNtB7_13ConfigManager18get_monitor_layouts_0B9_
FNDA:0,_RNCNvMs2_NtCsgmIDG9vGii7_8niri_bar6configNtB7_13ConfigManager5start0B9_
FNDA:0,_RNvMs2_NtCsgmIDG9vGii7_8niri_bar6configNtB5_13ConfigManager10get_config
FNDA:0,_RNvMs2_NtCsgmIDG9vGii7_8niri_bar6configNtB5_13ConfigManager11get_layouts
FNDA:0,_RNvMs2_NtCsgmIDG9vGii7_8niri_bar6configNtB5_13ConfigManager12parse_config
FNDA:0,_RNvMs2_NtCsgmIDG9vGii7_8niri_bar6configNtB5_13ConfigManager14get_config_ref
FNDA:0,_RNvMs2_NtCsgmIDG9vGii7_8niri_bar6configNtB5_13ConfigManager15matches_pattern
FNDA:0,_RNvMs2_NtCsgmIDG9vGii7_8niri_bar6configNtB5_13ConfigManager15validate_config
FNDA:0,_RNvMs2_NtCsgmIDG9vGii7_8niri_bar6configNtB5_13ConfigManager16basic_validation
FNDA:0,_RNvMs2_NtCsgmIDG9vGii7_8niri_bar6configNtB5_13ConfigManager18get_global_modules
FNDA:0,_RNvMs2_NtCsgmIDG9vGii7_8niri_bar6configNtB5_13ConfigManager18get_monitor_layout
FNDA:0,_RNvMs2_NtCsgmIDG9vGii7_8niri_bar6configNtB5_13ConfigManager18handle_config_load
FNDA:0,_RNvMs2_NtCsgmIDG9vGii7_8niri_bar6configNtB5_13ConfigManager18is_monitor_enabled
FNDA:0,_RNvMs2_NtCsgmIDG9vGii7_8niri_bar6configNtB5_13ConfigManager19get_monitor_modules
FNDA:0,_RNvMs2_NtCsgmIDG9vGii7_8niri_bar6configNtB5_13ConfigManager19handle_config_error
FNDA:0,_RNvMs2_NtCsgmIDG9vGii7_8niri_bar6configNtB5_13ConfigManager19pattern_specificity
FNDA:0,_RNvMs2_NtCsgmIDG9vGii7_8niri_bar6configNtB5_13ConfigManager20handle_config_change
FNDA:0,_RNvMs2_NtCsgmIDG9vGii7_8niri_bar6configNtB5_13ConfigManager3new
FNDA:0,_RNvMs2_NtCsgmIDG9vGii7_8niri_bar6configNtB5_13ConfigManager5start
FNDA:0,_RNvMs2_NtCsgmIDG9vGii7_8niri_bar6configNtB5_13ConfigManager9subscribe
FNDA:0,_RNvNtCsgmIDG9vGii7_8niri_bar6config12default_true
FNDA:0,_RNvNtCsgmIDG9vGii7_8niri_bar6config13default_theme
FNDA:0,_RNvNtCsgmIDG9vGii7_8niri_bar6config14default_filter
FNDA:0,_RNvNtCsgmIDG9vGii7_8niri_bar6config14default_resize
FNDA:0,_RNvNtCsgmIDG9vGii7_8niri_bar6config15default_enabled
FNDA:0,_RNvNtCsgmIDG9vGii7_8niri_bar6config18default_fill_color
FNDA:0,_RNvNtCsgmIDG9vGii7_8niri_bar6config18default_log_format
FNDA:0,_RNvNtCsgmIDG9vGii7_8niri_bar6config22default_logging_config
FNDA:0,_RNvNtCsgmIDG9vGii7_8niri_bar6config22default_transition_fps
FNDA:0,_RNvNtCsgmIDG9vGii7_8niri_bar6config23default_transition_step
FNDA:0,_RNvNtCsgmIDG9vGii7_8niri_bar6config23default_transition_type
FNDA:0,_RNvNtCsgmIDG9vGii7_8niri_bar6config27default_transition_duration
FNDA:0,_RNvXNtCsgmIDG9vGii7_8niri_bar6configNtB2_9TextAlignNtNtCs66KPHxksi63_4core7default7Default7default
FNDA:0,_RNvXs0_NtCsgmIDG9vGii7_8niri_bar6configNtB5_20ColumnOverflowPolicyNtNtCs66KPHxksi63_4core7default7Default7default
FNDA:0,_RNvXs1_NtCsgmIDG9vGii7_8niri_bar6configNtB5_13ConfigManagerNtNtCs66KPHxksi63_4core5clone5Clone5clone
FNDA:0,_RNvXs3_NtCsgmIDG9vGii7_8niri_bar6configNtB5_13ConfigManagerNtNtCs66KPHxksi63_4core7default7Default7default
FNDA:0,_RNvXs_NtCsgmIDG9vGii7_8niri_bar6configNtB4_11DisplayModeNtNtCs66KPHxksi63_4core7default7Default7default
FNF:42
FNH:21
DA:30,0
DA:31,0
DA:32,0
DA:45,0
DA:46,0
DA:47,0
DA:108,1
DA:109,1
DA:110,1
DA:183,0
DA:184,0
DA:185,0
DA:186,0
DA:187,0
DA:188,0
DA:189,0
DA:190,0
DA:191,0
DA:192,0
DA:193,0
DA:194,0
DA:195,0
DA:196,0
DA:197,0
DA:198,0
DA:199,0
DA:200,0
DA:201,0
DA:202,0
DA:203,0
DA:240,7
DA:241,7
DA:242,7
DA:268,7
DA:269,7
DA:270,7
DA:272,0
DA:273,0
DA:274,0
DA:275,0
DA:276,0
DA:277,0
DA:278,0
DA:279,0
DA:280,0
DA:281,0
DA:282,0
DA:284,12
DA:285,12
DA:286,12
DA:288,36
DA:289,36
DA:290,36
DA:311,0
DA:312,0
DA:313,0
DA:314,0
DA:315,0
DA:316,0
DA:317,0
DA:322,284
DA:323,284
DA:325,284
DA:326,284
DA:327,284
DA:328,284
DA:329,284
DA:330,284
DA:333,1
DA:334,1
DA:336,1
DA:337,1
DA:340,1
DA:341,1
DA:342,1
DA:343,1
DA:344,1
DA:345,1
DA:346,1
DA:348,1
DA:349,1
DA:350,1
DA:351,0
DA:352,0
DA:353,0
DA:355,1
DA:356,1
DA:357,0
DA:358,0
DA:359,0
DA:363,1
DA:365,1
DA:366,1
DA:367,1
DA:370,9
DA:371,9
DA:372,9
DA:375,0
DA:376,0
DA:377,0
DA:380,2
DA:381,2
DA:382,2
DA:385,1
DA:386,1
DA:387,1
DA:388,1
DA:389,1
DA:390,1
DA:391,1
DA:393,1
DA:394,1
DA:395,1
DA:398,1
DA:399,1
DA:400,1
DA:401,1
DA:404,1
DA:406,0
DA:407,0
DA:408,0
DA:414,0
DA:415,0
DA:416,0
DA:417,0
DA:420,1
DA:423,0
DA:424,0
DA:425,0
DA:426,0
DA:427,0
DA:428,0
DA:429,0
DA:431,0
DA:432,0
DA:433,0
DA:436,0
DA:437,0
DA:438,0
DA:439,0
DA:442,0
DA:444,0
DA:445,0
DA:446,0
DA:452,0
DA:453,0
DA:454,0
DA:455,0
DA:458,0
DA:461,0
DA:462,0
DA:463,0
DA:464,0
DA:465,0
DA:466,0
DA:467,0
DA:472,0
DA:473,0
DA:474,0
DA:475,0
DA:476,0
DA:499,9
DA:500,9
DA:503,9
DA:506,9
DA:508,9
DA:509,9
DA:512,9
DA:514,9
DA:515,9
DA:518,9
DA:522,9
DA:524,9
DA:525,9
DA:528,12
DA:530,12
DA:531,12
DA:532,1
DA:533,1
DA:534,1
DA:535,1
DA:536,11
DA:539,11
DA:540,11
DA:541,0
DA:542,0
DA:543,0
DA:544,0
DA:545,11
DA:548,38
DA:549,27
DA:550,0
DA:551,27
DA:554,11
DA:555,12
DA:558,9
DA:559,9
DA:560,9
DA:561,8
DA:562,1
DA:567,8
DA:568,8
DA:570,32
DA:571,24
DA:572,12
DA:573,12
DA:574,12
DA:575,12
DA:576,12
DA:577,12
DA:580,8
DA:581,9
DA:584,536
DA:585,536
DA:586,11
DA:587,525
DA:588,525
DA:589,9
DA:590,3
DA:592,6
DA:594,516
DA:595,516
DA:596,10
DA:597,506
DA:598,506
DA:599,536
DA:602,0
DA:603,0
DA:604,0
DA:607,0
DA:608,0
DA:609,0
DA:610,0
DA:611,0
DA:612,0
DA:613,0
DA:615,0
DA:618,0
DA:619,0
DA:620,0
DA:622,0
DA:623,0
DA:627,0
DA:628,0
DA:629,0
DA:630,0
DA:631,0
DA:634,1
DA:635,1
DA:636,1
DA:639,1
DA:642,1
DA:643,1
DA:644,4
DA:645,3
DA:646,2
DA:647,2
DA:648,2
DA:649,2
DA:650,2
DA:651,1
DA:653,1
DA:654,1
DA:656,4
DA:657,3
DA:658,3
DA:659,0
DA:661,1
DA:662,1
DA:665,3
DA:666,3
DA:667,3
DA:669,1
DA:670,3
DA:673,3
DA:674,3
DA:675,3
DA:677,1
DA:678,3
DA:681,304
DA:683,304
DA:684,26
DA:686,26
DA:687,12
DA:688,12
DA:689,14
DA:690,14
DA:691,278
DA:694,278
DA:697,278
DA:698,1
DA:699,277
DA:701,277
DA:702,20
DA:703,257
DA:705,257
DA:706,304
DA:710,0
DA:711,0
DA:712,0
BRF:0
BRH:0
LF:304
LH:175
end_of_record
SF:/home/rayben/Dropbox/PC/cachygram/niri-bar/src/file_watcher.rs
FN:61,_RINvMNtCsgK501w16GVc_8niri_bar12file_watcherNtB3_11FileWatcher17with_search_pathsppEB5_
FN:35,_RINvMNtCsgK501w16GVc_8niri_bar12file_watcherNtB3_11FileWatcher3newpEB5_
FN:91,_RINvMNtCsgK501w16GVc_8niri_bar12file_watcherNtB3_11FileWatcher7on_loadpEB5_
FN:118,_RINvMNtCsgK501w16GVc_8niri_bar12file_watcherNtB3_11FileWatcher8on_errorpEB5_
FN:100,_RINvMNtCsgK501w16GVc_8niri_bar12file_watcherNtB3_11FileWatcher9on_changepEB5_
FN:109,_RINvMNtCsgK501w16GVc_8niri_bar12file_watcherNtB3_11FileWatcher9on_deletepEB5_
FN:66,_RNCINvMNtCsgK501w16GVc_8niri_bar12file_watcherNtB5_11FileWatcher17with_search_pathsppE0B7_
FN:176,_RNCNCNCNvMNtCsgK501w16GVc_8niri_bar12file_watcherNtB8_11FileWatcher19start_watching_file000Ba_
FN:221,_RNCNCNCNvMNtCsgK501w16GVc_8niri_bar12file_watcherNtB8_11FileWatcher32start_watching_file_with_timeout000Ba_
FN:235,_RNCNCNCNvMNtCsgK501w16GVc_8niri_bar12file_watcherNtB8_11FileWatcher32start_watching_file_with_timeout00s_0Ba_
FN:173,_RNCNCNvMNtCsgK501w16GVc_8niri_bar12file_watcherNtB6_11FileWatcher19start_watching_file00B8_
FN:218,_RNCNCNvMNtCsgK501w16GVc_8niri_bar12file_watcherNtB6_11FileWatcher32start_watching_file_with_timeout00B8_
FN:145,_RNCNvMNtCsgK501w16GVc_8niri_bar12file_watcherNtB4_11FileWatcher18start_with_timeout0B6_
FN:164,_RNCNvMNtCsgK501w16GVc_8niri_bar12file_watcherNtB4_11FileWatcher19start_watching_file0B6_
FN:209,_RNCNvMNtCsgK501w16GVc_8niri_bar12file_watcherNtB4_11FileWatcher32start_watching_file_with_timeout0B6_
FN:127,_RNCNvMNtCsgK501w16GVc_8niri_bar12file_watcherNtB4_11FileWatcher5start0B6_
FN:80,_RNCNvMNtCsgK501w16GVc_8niri_bar12file_watcherNtB4_11FileWatcher9find_file0B6_
FN:258,_RNCNvMNtCsgK501w16GVc_8niri_bar12file_watcherNtB4_11FileWatcher9load_file0B6_
FN:280,_RNvMNtCsgK501w16GVc_8niri_bar12file_watcherNtB2_11FileWatcher11actual_path
FN:285,_RNvMNtCsgK501w16GVc_8niri_bar12file_watcherNtB2_11FileWatcher12search_paths
FN:145,_RNvMNtCsgK501w16GVc_8niri_bar12file_watcherNtB2_11FileWatcher18start_with_timeout
FN:164,_RNvMNtCsgK501w16GVc_8niri_bar12file_watcherNtB2_11FileWatcher19start_watching_file
FN:205,_RNvMNtCsgK501w16GVc_8niri_bar12file_watcherNtB2_11FileWatcher32start_watching_file_with_timeout
FN:127,_RNvMNtCsgK501w16GVc_8niri_bar12file_watcherNtB2_11FileWatcher5start
FN:275,_RNvMNtCsgK501w16GVc_8niri_bar12file_watcherNtB2_11FileWatcher8filename
FN:80,_RNvMNtCsgK501w16GVc_8niri_bar12file_watcherNtB2_11FileWatcher9find_file
FN:258,_RNvMNtCsgK501w16GVc_8niri_bar12file_watcherNtB2_11FileWatcher9load_file
FN:35,_RINvMNtCsgK501w16GVc_8niri_bar12file_watcherNtB3_11FileWatcher3newReECs3DyeWZuFwsl_12config_tests
FN:91,_RINvMNtCsgK501w16GVc_8niri_bar12file_watcherNtB3_11FileWatcher7on_loadNCNCNvMs2_NtB5_6configNtB1g_13ConfigManager5start00ECs3DyeWZuFwsl_12config_tests
FN:118,_RINvMNtCsgK501w16GVc_8niri_bar12file_watcherNtB3_11FileWatcher8on_errorNCNCNvMs2_NtB5_6configNtB1h_13ConfigManager5start0s0_0ECs3DyeWZuFwsl_12config_tests
FN:100,_RINvMNtCsgK501w16GVc_8niri_bar12file_watcherNtB3_11FileWatcher9on_changeNCNCNvMs2_NtB5_6configNtB1i_13ConfigManager5start0s_0ECs3DyeWZuFwsl_12config_tests
FN:176,_RNCNCNCNvMNtCsgK501w16GVc_8niri_bar12file_watcherNtB8_11FileWatcher19start_watching_file000Cs3DyeWZuFwsl_12config_tests
FN:173,_RNCNCNvMNtCsgK501w16GVc_8niri_bar12file_watcherNtB6_11FileWatcher19start_watching_file00Cs3DyeWZuFwsl_12config_tests
FN:164,_RNCNvMNtCsgK501w16GVc_8niri_bar12file_watcherNtB4_11FileWatcher19start_watching_file0Cs3DyeWZuFwsl_12config_tests
FN:127,_RNCNvMNtCsgK501w16GVc_8niri_bar12file_watcherNtB4_11FileWatcher5start0Cs3DyeWZuFwsl_12config_tests
FN:80,_RNCNvMNtCsgK501w16GVc_8niri_bar12file_watcherNtB4_11FileWatcher9find_file0Cs3DyeWZuFwsl_12config_tests
FN:258,_RNCNvMNtCsgK501w16GVc_8niri_bar12file_watcherNtB4_11FileWatcher9load_file0Cs3DyeWZuFwsl_12config_tests
FN:61,_RINvMNtCsgK501w16GVc_8niri_bar12file_watcherNtB3_11FileWatcher17with_search_pathsReNtNtCsiKSG5X70Gj7_3std4path7PathBufECskZaNGQ6IHlt_18file_watcher_tests
FN:35,_RINvMNtCsgK501w16GVc_8niri_bar12file_watcherNtB3_11FileWatcher3newReECskZaNGQ6IHlt_18file_watcher_tests
FN:91,_RINvMNtCsgK501w16GVc_8niri_bar12file_watcherNtB3_11FileWatcher7on_loadNCNCNvCskZaNGQ6IHlt_18file_watcher_testss_27test_file_watcher_callbacks00EB1c_
FN:91,_RINvMNtCsgK501w16GVc_8niri_bar12file_watcherNtB3_11FileWatcher7on_loadNCNCNvCskZaNGQ6IHlt_18file_watcher_testss_32test_file_watcher_with_real_file00EB1c_
FN:91,_RINvMNtCsgK501w16GVc_8niri_bar12file_watcherNtB3_11FileWatcher7on_loadNCNCNvCskZaNGQ6IHlt_18file_watcher_testss_43test_file_watcher_finds_file_in_search_path00EB1c_
FN:118,_RINvMNtCsgK501w16GVc_8niri_bar12file_watcherNtB3_11FileWatcher8on_errorNCNCNvCskZaNGQ6IHlt_18file_watcher_testss_27test_file_watcher_callbacks0s0_0EB1d_
FN:100,_RINvMNtCsgK501w16GVc_8niri_bar12file_watcherNtB3_11FileWatcher9on_changeNCNCNvCskZaNGQ6IHlt_18file_watcher_testss_27test_file_watcher_callbacks0s_0EB1e_
FN:66,_RNCINvMNtCsgK501w16GVc_8niri_bar12file_watcherNtB5_11FileWatcher17with_search_pathsReNtNtCsiKSG5X70Gj7_3std4path7PathBufE0CskZaNGQ6IHlt_18file_watcher_tests
FN:221,_RNCNCNCNvMNtCsgK501w16GVc_8niri_bar12file_watcherNtB8_11FileWatcher32start_watching_file_with_timeout000CskZaNGQ6IHlt_18file_watcher_tests
FN:235,_RNCNCNCNvMNtCsgK501w16GVc_8niri_bar12file_watcherNtB8_11FileWatcher32start_watching_file_with_timeout00s_0CskZaNGQ6IHlt_18file_watcher_tests
FN:218,_RNCNCNvMNtCsgK501w16GVc_8niri_bar12file_watcherNtB6_11FileWatcher32start_watching_file_with_timeout00CskZaNGQ6IHlt_18file_watcher_tests
FN:145,_RNCNvMNtCsgK501w16GVc_8niri_bar12file_watcherNtB4_11FileWatcher18start_with_timeout0CskZaNGQ6IHlt_18file_watcher_tests
FN:209,_RNCNvMNtCsgK501w16GVc_8niri_bar12file_watcherNtB4_11FileWatcher32start_watching_file_with_timeout0CskZaNGQ6IHlt_18file_watcher_tests
FN:80,_RNCNvMNtCsgK501w16GVc_8niri_bar12file_watcherNtB4_11FileWatcher9find_file0CskZaNGQ6IHlt_18file_watcher_tests
FN:258,_RNCNvMNtCsgK501w16GVc_8niri_bar12file_watcherNtB4_11FileWatcher9load_file0CskZaNGQ6IHlt_18file_watcher_tests
FN:61,_RINvMNtCsgmIDG9vGii7_8niri_bar12file_watcherNtB3_11FileWatcher17with_search_pathsppEB5_
FN:35,_RINvMNtCsgmIDG9vGii7_8niri_bar12file_watcherNtB3_11FileWatcher3newpEB5_
FN:91,_RINvMNtCsgmIDG9vGii7_8niri_bar12file_watcherNtB3_11FileWatcher7on_loadpEB5_
FN:118,_RINvMNtCsgmIDG9vGii7_8niri_bar12file_watcherNtB3_11FileWatcher8on_errorpEB5_
FN:100,_RINvMNtCsgmIDG9vGii7_8niri_bar12file_watcherNtB3_11FileWatcher9on_changepEB5_
FN:109,_RINvMNtCsgmIDG9vGii7_8niri_bar12file_watcherNtB3_11FileWatcher9on_deletepEB5_
FN:66,_RNCINvMNtCsgmIDG9vGii7_8niri_bar12file_watcherNtB5_11FileWatcher17with_search_pathsppE0B7_
FN:176,_RNCNCNCNvMNtCsgmIDG9vGii7_8niri_bar12file_watcherNtB8_11FileWatcher19start_watching_file000Ba_
FN:221,_RNCNCNCNvMNtCsgmIDG9vGii7_8niri_bar12file_watcherNtB8_11FileWatcher32start_watching_file_with_timeout000Ba_
FN:235,_RNCNCNCNvMNtCsgmIDG9vGii7_8niri_bar12file_watcherNtB8_11FileWatcher32start_watching_file_with_timeout00s_0Ba_
FN:173,_RNCNCNvMNtCsgmIDG9vGii7_8niri_bar12file_watcherNtB6_11FileWatcher19start_watching_file00B8_
FN:218,_RNCNCNvMNtCsgmIDG9vGii7_8niri_bar12file_watcherNtB6_11FileWatcher32start_watching_file_with_timeout00B8_
FN:145,_RNCNvMNtCsgmIDG9vGii7_8niri_bar12file_watcherNtB4_11FileWatcher18start_with_timeout0B6_
FN:164,_RNCNvMNtCsgmIDG9vGii7_8niri_bar12file_watcherNtB4_11FileWatcher19start_watching_file0B6_
FN:209,_RNCNvMNtCsgmIDG9vGii7_8niri_bar12file_watcherNtB4_11FileWatcher32start_watching_file_with_timeout0B6_
FN:127,_RNCNvMNtCsgmIDG9vGii7_8niri_bar12file_watcherNtB4_11FileWatcher5start0B6_
FN:80,_RNCNvMNtCsgmIDG9vGii7_8niri_bar12file_watcherNtB4_11FileWatcher9find_file0B6_
FN:258,_RNCNvMNtCsgmIDG9vGii7_8niri_bar12file_watcherNtB4_11FileWatcher9load_file0B6_
FN:280,_RNvMNtCsgmIDG9vGii7_8niri_bar12file_watcherNtB2_11FileWatcher11actual_path
FN:285,_RNvMNtCsgmIDG9vGii7_8niri_bar12file_watcherNtB2_11FileWatcher12search_paths
FN:145,_RNvMNtCsgmIDG9vGii7_8niri_bar12file_watcherNtB2_11FileWatcher18start_with_timeout
FN:164,_RNvMNtCsgmIDG9vGii7_8niri_bar12file_watcherNtB2_11FileWatcher19start_watching_file
FN:205,_RNvMNtCsgmIDG9vGii7_8niri_bar12file_watcherNtB2_11FileWatcher32start_watching_file_with_timeout
FN:127,_RNvMNtCsgmIDG9vGii7_8niri_bar12file_watcherNtB2_11FileWatcher5start
FN:275,_RNvMNtCsgmIDG9vGii7_8niri_bar12file_watcherNtB2_11FileWatcher8filename
FN:80,_RNvMNtCsgmIDG9vGii7_8niri_bar12file_watcherNtB2_11FileWatcher9find_file
FN:258,_RNvMNtCsgmIDG9vGii7_8niri_bar12file_watcherNtB2_11FileWatcher9load_file
FNDA:0,_RINvMNtCsgK501w16GVc_8niri_bar12file_watcherNtB3_11FileWatcher17with_search_pathsppEB5_
FNDA:0,_RINvMNtCsgK501w16GVc_8niri_bar12file_watcherNtB3_11FileWatcher3newpEB5_
FNDA:0,_RINvMNtCsgK501w16GVc_8niri_bar12file_watcherNtB3_11FileWatcher7on_loadpEB5_
FNDA:0,_RINvMNtCsgK501w16GVc_8niri_bar12file_watcherNtB3_11FileWatcher8on_errorpEB5_
FNDA:0,_RINvMNtCsgK501w16GVc_8niri_bar12file_watcherNtB3_11FileWatcher9on_changepEB5_
FNDA:0,_RINvMNtCsgK501w16GVc_8niri_bar12file_watcherNtB3_11FileWatcher9on_deletepEB5_
FNDA:0,_RNCINvMNtCsgK501w16GVc_8niri_bar12file_watcherNtB5_11FileWatcher17with_search_pathsppE0B7_
FNDA:0,_RNCNCNCNvMNtCsgK501w16GVc_8niri_bar12file_watcherNtB8_11FileWatcher19start_watching_file000Ba_
FNDA:0,_RNCNCNCNvMNtCsgK501w16GVc_8niri_bar12file_watcherNtB8_11FileWatcher32start_watching_file_with_timeout000Ba_
FNDA:0,_RNCNCNCNvMNtCsgK501w16GVc_8niri_bar12file_watcherNtB8_11FileWatcher32start_watching_file_with_timeout00s_0Ba_
FNDA:0,_RNCNCNvMNtCsgK501w16GVc_8niri_bar12file_watcherNtB6_11FileWatcher19start_watching_file00B8_
FNDA:0,_RNCNCNvMNtCsgK501w16GVc_8niri_bar12file_watcherNtB6_11FileWatcher32start_watching_file_with_timeout00B8_
FNDA:0,_RNCNvMNtCsgK501w16GVc_8niri_bar12file_watcherNtB4_11FileWatcher18start_with_timeout0B6_
FNDA:0,_RNCNvMNtCsgK501w16GVc_8niri_bar12file_watcherNtB4_11FileWatcher19start_watching_file0B6_
FNDA:0,_RNCNvMNtCsgK501w16GVc_8niri_bar12file_watcherNtB4_11FileWatcher32start_watching_file_with_timeout0B6_
FNDA:0,_RNCNvMNtCsgK501w16GVc_8niri_bar12file_watcherNtB4_11FileWatcher5start0B6_
FNDA:0,_RNCNvMNtCsgK501w16GVc_8niri_bar12file_watcherNtB4_11FileWatcher9find_file0B6_
FNDA:0,_RNCNvMNtCsgK501w16GVc_8niri_bar12file_watcherNtB4_11FileWatcher9load_file0B6_
FNDA:1,_RNvMNtCsgK501w16GVc_8niri_bar12file_watcherNtB2_11FileWatcher11actual_path
FNDA:2,_RNvMNtCsgK501w16GVc_8niri_bar12file_watcherNtB2_11FileWatcher12search_paths
FNDA:3,_RNvMNtCsgK501w16GVc_8niri_bar12file_watcherNtB2_11FileWatcher18start_with_timeout
FNDA:1,_RNvMNtCsgK501w16GVc_8niri_bar12file_watcherNtB2_11FileWatcher19start_watching_file
FNDA:2,_RNvMNtCsgK501w16GVc_8niri_bar12file_watcherNtB2_11FileWatcher32start_watching_file_with_timeout
FNDA:1,_RNvMNtCsgK501w16GVc_8niri_bar12file_watcherNtB2_11FileWatcher5start
FNDA:2,_RNvMNtCsgK501w16GVc_8niri_bar12file_watcherNtB2_11FileWatcher8filename
FNDA:4,_RNvMNtCsgK501w16GVc_8niri_bar12file_watcherNtB2_11FileWatcher9find_file
FNDA:3,_RNvMNtCsgK501w16GVc_8niri_bar12file_watcherNtB2_11FileWatcher9load_file
FNDA:1,_RINvMNtCsgK501w16GVc_8niri_bar12file_watcherNtB3_11FileWatcher3newReECs3DyeWZuFwsl_12config_tests
FNDA:1,_RINvMNtCsgK501w16GVc_8niri_bar12file_watcherNtB3_11FileWatcher7on_loadNCNCNvMs2_NtB5_6configNtB1g_13ConfigManager5start00ECs3DyeWZuFwsl_12config_tests
FNDA:1,_RINvMNtCsgK501w16GVc_8niri_bar12file_watcherNtB3_11FileWatcher8on_errorNCNCNvMs2_NtB5_6configNtB1h_13ConfigManager5start0s0_0ECs3DyeWZuFwsl_12config_tests
FNDA:1,_RINvMNtCsgK501w16GVc_8niri_bar12file_watcherNtB3_11FileWatcher9on_changeNCNCNvMs2_NtB5_6configNtB1i_13ConfigManager5start0s_0ECs3DyeWZuFwsl_12config_tests
FNDA:0,_RNCNCNCNvMNtCsgK501w16GVc_8niri_bar12file_watcherNtB8_11FileWatcher19start_watching_file000Cs3DyeWZuFwsl_12config_tests
FNDA:1,_RNCNCNvMNtCsgK501w16GVc_8niri_bar12file_watcherNtB6_11FileWatcher19start_watching_file00Cs3DyeWZuFwsl_12config_tests
FNDA:1,_RNCNvMNtCsgK501w16GVc_8niri_bar12file_watcherNtB4_11FileWatcher19start_watching_file0Cs3DyeWZuFwsl_12config_tests
FNDA:1,_RNCNvMNtCsgK501w16GVc_8niri_bar12file_watcherNtB4_11FileWatcher5start0Cs3DyeWZuFwsl_12config_tests
FNDA:1,_RNCNvMNtCsgK501w16GVc_8niri_bar12file_watcherNtB4_11FileWatcher9find_file0Cs3DyeWZuFwsl_12config_tests
FNDA:1,_RNCNvMNtCsgK501w16GVc_8niri_bar12file_watcherNtB4_11FileWatcher9load_file0Cs3DyeWZuFwsl_12config_tests
FNDA:4,_RINvMNtCsgK501w16GVc_8niri_bar12file_watcherNtB3_11FileWatcher17with_search_pathsReNtNtCsiKSG5X70Gj7_3std4path7PathBufECskZaNGQ6IHlt_18file_watcher_tests
FNDA:1,_RINvMNtCsgK501w16GVc_8niri_bar12file_watcherNtB3_11FileWatcher3newReECskZaNGQ6IHlt_18file_watcher_tests
FNDA:1,_RINvMNtCsgK501w16GVc_8niri_bar12file_watcherNtB3_11FileWatcher7on_loadNCNCNvCskZaNGQ6IHlt_18file_watcher_testss_27test_file_watcher_callbacks00EB1c_
FNDA:1,_RINvMNtCsgK501w16GVc_8niri_bar12file_watcherNtB3_11FileWatcher7on_loadNCNCNvCskZaNGQ6IHlt_18file_watcher_testss_32test_file_watcher_with_real_file00EB1c_
FNDA:1,_RINvMNtCsgK501w16GVc_8niri_bar12file_watcherNtB3_11FileWatcher7on_loadNCNCNvCskZaNGQ6IHlt_18file_watcher_testss_43test_file_watcher_finds_file_in_search_path00EB1c_
FNDA:1,_RINvMNtCsgK501w16GVc_8niri_bar12file_watcherNtB3_11FileWatcher8on_errorNCNCNvCskZaNGQ6IHlt_18file_watcher_testss_27test_file_watcher_callbacks0s0_0EB1d_
FNDA:1,_RINvMNtCsgK501w16GVc_8niri_bar12file_watcherNtB3_11FileWatcher9on_changeNCNCNvCskZaNGQ6IHlt_18file_watcher_testss_27test_file_watcher_callbacks0s_0EB1e_
FNDA:5,_RNCINvMNtCsgK501w16GVc_8niri_bar12file_watcherNtB5_11FileWatcher17with_search_pathsReNtNtCsiKSG5X70Gj7_3std4path7PathBufE0CskZaNGQ6IHlt_18file_watcher_tests
FNDA:0,_RNCNCNCNvMNtCsgK501w16GVc_8niri_bar12file_watcherNtB8_11FileWatcher32start_watching_file_with_timeout000CskZaNGQ6IHlt_18file_watcher_tests
FNDA:2,_RNCNCNCNvMNtCsgK501w16GVc_8niri_bar12file_watcherNtB8_11FileWatcher32start_watching_file_with_timeout00s_0CskZaNGQ6IHlt_18file_watcher_tests
FNDA:2,_RNCNCNvMNtCsgK501w16GVc_8niri_bar12file_watcherNtB6_11FileWatcher32start_watching_file_with_timeout00CskZaNGQ6IHlt_18file_watcher_tests
FNDA:3,_RNCNvMNtCsgK501w16GVc_8niri_bar12file_watcherNtB4_11FileWatcher18start_with_timeout0CskZaNGQ6IHlt_18file_watcher_tests
FNDA:2,_RNCNvMNtCsgK501w16GVc_8niri_bar12file_watcherNtB4_11FileWatcher32start_watching_file_with_timeout0CskZaNGQ6IHlt_18file_watcher_tests
FNDA:3,_RNCNvMNtCsgK501w16GVc_8niri_bar12file_watcherNtB4_11FileWatcher9find_file0CskZaNGQ6IHlt_18file_watcher_tests
FNDA:2,_RNCNvMNtCsgK501w16GVc_8niri_bar12file_watcherNtB4_11FileWatcher9load_file0CskZaNGQ6IHlt_18file_watcher_tests
FNDA:0,_RINvMNtCsgmIDG9vGii7_8niri_bar12file_watcherNtB3_11FileWatcher17with_search_pathsppEB5_
FNDA:0,_RINvMNtCsgmIDG9vGii7_8niri_bar12file_watcherNtB3_11FileWatcher3newpEB5_
FNDA:0,_RINvMNtCsgmIDG9vGii7_8niri_bar12file_watcherNtB3_11FileWatcher7on_loadpEB5_
FNDA:0,_RINvMNtCsgmIDG9vGii7_8niri_bar12file_watcherNtB3_11FileWatcher8on_errorpEB5_
FNDA:0,_RINvMNtCsgmIDG9vGii7_8niri_bar12file_watcherNtB3_11FileWatcher9on_changepEB5_
FNDA:0,_RINvMNtCsgmIDG9vGii7_8niri_bar12file_watcherNtB3_11FileWatcher9on_deletepEB5_
FNDA:0,_RNCINvMNtCsgmIDG9vGii7_8niri_bar12file_watcherNtB5_11FileWatcher17with_search_pathsppE0B7_
FNDA:0,_RNCNCNCNvMNtCsgmIDG9vGii7_8niri_bar12file_watcherNtB8_11FileWatcher19start_watching_file000Ba_
FNDA:0,_RNCNCNCNvMNtCsgmIDG9vGii7_8niri_bar12file_watcherNtB8_11FileWatcher32start_watching_file_with_timeout000Ba_
FNDA:0,_RNCNCNCNvMNtCsgmIDG9vGii7_8niri_bar12file_watcherNtB8_11FileWatcher32start_watching_file_with_timeout00s_0Ba_
FNDA:0,_RNCNCNvMNtCsgmIDG9vGii7_8niri_bar12file_watcherNtB6_11FileWatcher19start_watching_file00B8_
FNDA:0,_RNCNCNvMNtCsgmIDG9vGii7_8niri_bar12file_watcherNtB6_11FileWatcher32start_watching_file_with_timeout00B8_
FNDA:0,_RNCNvMNtCsgmIDG9vGii7_8niri_bar12file_watcherNtB4_11FileWatcher18start_with_timeout0B6_
FNDA:0,_RNCNvMNtCsgmIDG9vGii7_8niri_bar12file_watcherNtB4_11FileWatcher19start_watching_file0B6_
FNDA:0,_RNCNvMNtCsgmIDG9vGii7_8niri_bar12file_watcherNtB4_11FileWatcher32start_watching_file_with_timeout0B6_
FNDA:0,_RNCNvMNtCsgmIDG9vGii7_8niri_bar12file_watcherNtB4_11FileWatcher5start0B6_
FNDA:0,_RNCNvMNtCsgmIDG9vGii7_8niri_bar12file_watcherNtB4_11FileWatcher9find_file0B6_
FNDA:0,_RNCNvMNtCsgmIDG9vGii7_8niri_bar12file_watcherNtB4_11FileWatcher9load_file0B6_
FNDA:0,_RNvMNtCsgmIDG9vGii7_8niri_bar12file_watcherNtB2_11FileWatcher11actual_path
FNDA:0,_RNvMNtCsgmIDG9vGii7_8niri_bar12file_watcherNtB2_11FileWatcher12search_paths
FNDA:0,_RNvMNtCsgmIDG9vGii7_8niri_bar12file_watcherNtB2_11FileWatcher18start_with_timeout
FNDA:0,_RNvMNtCsgmIDG9vGii7_8niri_bar12file_watcherNtB2_11FileWatcher19start_watching_file
FNDA:0,_RNvMNtCsgmIDG9vGii7_8niri_bar12file_watcherNtB2_11FileWatcher32start_watching_file_with_timeout
FNDA:0,_RNvMNtCsgmIDG9vGii7_8niri_bar12file_watcherNtB2_11FileWatcher5start
FNDA:0,_RNvMNtCsgmIDG9vGii7_8niri_bar12file_watcherNtB2_11FileWatcher8filename
FNDA:0,_RNvMNtCsgmIDG9vGii7_8niri_bar12file_watcherNtB2_11FileWatcher9find_file
FNDA:0,_RNvMNtCsgmIDG9vGii7_8niri_bar12file_watcherNtB2_11FileWatcher9load_file
FNF:27
FNH:24
DA:35,2
DA:36,2
DA:39,2
DA:42,2
DA:43,2
DA:44,2
DA:47,2
DA:49,2
DA:50,2
DA:51,2
DA:52,2
DA:53,2
DA:54,2
DA:55,2
DA:56,2
DA:57,2
DA:58,2
DA:61,4
DA:62,4
DA:63,4
DA:64,4
DA:65,4
DA:66,5
DA:68,4
DA:69,4
DA:70,4
DA:71,4
DA:72,4
DA:73,4
DA:74,4
DA:75,4
DA:76,4
DA:77,4
DA:80,4
DA:81,6
DA:82,5
DA:83,5
DA:84,3
DA:85,2
DA:87,1
DA:88,4
DA:91,4
DA:92,4
DA:93,4
DA:95,4
DA:96,4
DA:97,4
DA:100,2
DA:101,2
DA:102,2
DA:104,2
DA:105,2
DA:106,2
DA:109,0
DA:110,0
DA:111,0
DA:113,0
DA:114,0
DA:115,0
DA:118,2
DA:119,2
DA:120,2
DA:122,2
DA:123,2
DA:124,2
DA:127,1
DA:129,1
DA:130,1
DA:131,1
DA:134,0
DA:135,0
DA:136,0
DA:137,0
DA:138,0
DA:139,0
DA:141,1
DA:142,1
DA:145,3
DA:147,3
DA:148,2
DA:149,2
DA:150,2
DA:153,1
DA:154,1
DA:155,1
DA:156,1
DA:157,1
DA:158,1
DA:160,3
DA:161,3
DA:164,1
DA:166,1
DA:169,1
DA:170,1
DA:171,1
DA:173,1
DA:174,1
DA:176,1
DA:177,0
DA:178,0
DA:179,0
DA:180,0
DA:181,1
DA:184,1
DA:185,1
DA:186,1
DA:189,1
DA:190,0
DA:191,0
DA:192,0
DA:193,0
DA:194,0
DA:195,0
DA:196,0
DA:198,0
DA:201,1
DA:202,1
DA:205,2
DA:206,2
DA:207,2
DA:208,2
DA:209,2
DA:211,2
DA:214,2
DA:215,2
DA:216,2
DA:218,2
DA:219,2
DA:221,2
DA:222,0
DA:223,0
DA:224,0
DA:225,0
DA:226,2
DA:229,2
DA:230,2
DA:231,2
DA:234,2
DA:235,2
DA:236,2
DA:237,0
DA:238,0
DA:239,0
DA:240,0
DA:241,0
DA:242,0
DA:243,0
DA:245,0
DA:246,2
DA:247,2
DA:248,2
DA:250,2
DA:253,2
DA:254,2
DA:255,2
DA:258,3
DA:259,3
DA:260,3
DA:261,3
DA:262,3
DA:263,3
DA:265,0
DA:266,0
DA:267,0
DA:268,0
DA:271,3
DA:272,3
DA:275,2
DA:276,2
DA:277,2
DA:280,1
DA:281,1
DA:282,1
DA:285,2
DA:286,2
DA:287,2
BRF:0
BRH:0
LF:188
LH:145
end_of_record
SF:/home/rayben/Dropbox/PC/cachygram/niri-bar/src/logger.rs
FN:102,_RNvMNtCsgK501w16GVc_8niri_bar6loggerNtB2_13NiriBarLogger14format_message
FN:37,_RNvMNtCsgK501w16GVc_8niri_bar6loggerNtB2_13NiriBarLogger3new
FN:84,_RNvMNtCsgK501w16GVc_8niri_bar6loggerNtB2_13NiriBarLogger4init
FN:150,_RNvMNtCsgK501w16GVc_8niri_bar6loggerNtB2_13NiriBarLogger9write_log
FN:184,_RNvXs_NtCsgK501w16GVc_8niri_bar6loggerNtB4_13NiriBarLoggerNtCsj9j8Rfy3AuV_3log3Log3log
FN:197,_RNvXs_NtCsgK501w16GVc_8niri_bar6loggerNtB4_13NiriBarLoggerNtCsj9j8Rfy3AuV_3log3Log5flush
FN:171,_RNvXs_NtCsgK501w16GVc_8niri_bar6loggerNtB4_13NiriBarLoggerNtCsj9j8Rfy3AuV_3log3Log7enabled
FN:102,_RNvMNtCsgmIDG9vGii7_8niri_bar6loggerNtB2_13NiriBarLogger14format_message
FN:37,_RNvMNtCsgmIDG9vGii7_8niri_bar6loggerNtB2_13NiriBarLogger3new
FN:84,_RNvMNtCsgmIDG9vGii7_8niri_bar6loggerNtB2_13NiriBarLogger4init
FN:150,_RNvMNtCsgmIDG9vGii7_8niri_bar6loggerNtB2_13NiriBarLogger9write_log
FN:184,_RNvXs_NtCsgmIDG9vGii7_8niri_bar6loggerNtB4_13NiriBarLoggerNtCsj9j8Rfy3AuV_3log3Log3log
FN:197,_RNvXs_NtCsgmIDG9vGii7_8niri_bar6loggerNtB4_13NiriBarLoggerNtCsj9j8Rfy3AuV_3log3Log5flush
FN:171,_RNvXs_NtCsgmIDG9vGii7_8niri_bar6loggerNtB4_13NiriBarLoggerNtCsj9j8Rfy3AuV_3log3Log7enabled
FNDA:0,_RNvMNtCsgK501w16GVc_8niri_bar6loggerNtB2_13NiriBarLogger14format_message
FNDA:547,_RNvMNtCsgK501w16GVc_8niri_bar6loggerNtB2_13NiriBarLogger3new
FNDA:0,_RNvMNtCsgK501w16GVc_8niri_bar6loggerNtB2_13NiriBarLogger4init
FNDA:0,_RNvMNtCsgK501w16GVc_8niri_bar6loggerNtB2_13NiriBarLogger9write_log
FNDA:0,_RNvXs_NtCsgK501w16GVc_8niri_bar6loggerNtB4_13NiriBarLoggerNtCsj9j8Rfy3AuV_3log3Log3log
FNDA:0,_RNvXs_NtCsgK501w16GVc_8niri_bar6loggerNtB4_13NiriBarLoggerNtCsj9j8Rfy3AuV_3log3Log5flush
FNDA:0,_RNvXs_NtCsgK501w16GVc_8niri_bar6loggerNtB4_13NiriBarLoggerNtCsj9j8Rfy3AuV_3log3Log7enabled
FNDA:0,_RNvMNtCsgmIDG9vGii7_8niri_bar6loggerNtB2_13NiriBarLogger14format_message
FNDA:0,_RNvMNtCsgmIDG9vGii7_8niri_bar6loggerNtB2_13NiriBarLogger3new
FNDA:0,_RNvMNtCsgmIDG9vGii7_8niri_bar6loggerNtB2_13NiriBarLogger4init
FNDA:0,_RNvMNtCsgmIDG9vGii7_8niri_bar6loggerNtB2_13NiriBarLogger9write_log
FNDA:0,_RNvXs_NtCsgmIDG9vGii7_8niri_bar6loggerNtB4_13NiriBarLoggerNtCsj9j8Rfy3AuV_3log3Log3log
FNDA:0,_RNvXs_NtCsgmIDG9vGii7_8niri_bar6loggerNtB4_13NiriBarLoggerNtCsj9j8Rfy3AuV_3log3Log5flush
FNDA:0,_RNvXs_NtCsgmIDG9vGii7_8niri_bar6loggerNtB4_13NiriBarLoggerNtCsj9j8Rfy3AuV_3log3Log7enabled
FNF:7
FNH:1
DA:37,547
DA:38,547
DA:39,266
DA:40,266
DA:43,266
DA:44,266
DA:45,0
DA:47,265
DA:49,265
DA:51,281
DA:54,546
DA:55,546
DA:56,546
DA:57,546
DA:58,547
DA:84,0
DA:85,0
DA:86,0
DA:87,0
DA:88,0
DA:89,0
DA:90,0
DA:91,0
DA:94,0
DA:95,0
DA:96,0
DA:98,0
DA:99,0
DA:102,0
DA:103,0
DA:104,0
DA:105,0
DA:107,0
DA:110,0
DA:112,0
DA:115,0
DA:116,0
DA:117,0
DA:118,0
DA:119,0
DA:120,0
DA:123,0
DA:124,0
DA:126,0
DA:127,0
DA:128,0
DA:129,0
DA:130,0
DA:132,0
DA:133,0
DA:134,0
DA:135,0
DA:136,0
DA:138,0
DA:139,0
DA:140,0
DA:141,0
DA:144,0
DA:146,0
DA:147,0
DA:150,0
DA:151,0
DA:154,0
DA:155,0
DA:156,0
DA:159,0
DA:160,0
DA:162,0
DA:163,0
DA:164,0
DA:166,0
DA:167,0
DA:171,0
DA:172,0
DA:173,0
DA:174,0
DA:175,0
DA:176,0
DA:177,0
DA:178,0
DA:181,0
DA:182,0
DA:184,0
DA:185,0
DA:186,0
DA:189,0
DA:190,0
DA:191,0
DA:192,0
DA:193,0
DA:194,0
DA:195,0
DA:197,0
DA:199,0
DA:202,0
DA:205,0
DA:206,0
DA:207,0
DA:208,0
DA:209,0
DA:210,0
BRF:0
BRH:0
LF:101
LH:14
end_of_record
SF:/home/rayben/Dropbox/PC/cachygram/niri-bar/src/main.rs
FN:5,_RNvCs8r5HXykfYIi_8niri_bar4main
FN:5,_RNvCs6oJ7Ooezeay_8niri_bar4main
FNDA:0,_RNvCs8r5HXykfYIi_8niri_bar4main
FNDA:0,_RNvCs6oJ7Ooezeay_8niri_bar4main
FNF:1
FNH:0
DA:5,0
DA:7,0
DA:8,0
DA:9,0
DA:10,0
DA:11,0
DA:12,0
DA:13,0
DA:14,0
DA:15,0
DA:17,0
DA:20,0
DA:23,0
DA:24,0
DA:26,0
DA:27,0
BRF:0
BRH:0
LF:16
LH:0
end_of_record
SF:/home/rayben/Dropbox/PC/cachygram/niri-bar/src/modules/battery.rs
FN:21,_RNvMNtNtCsgK501w16GVc_8niri_bar7modules7batteryNtB2_13BatteryModule13create_widget
FN:245,_RNvNtNtCsgK501w16GVc_8niri_bar7modules7battery20update_battery_label
FN:222,_RNvNtNtCsgK501w16GVc_8niri_bar7modules7battery21find_powerprofilesctl
FN:193,_RNvNtNtCsgK501w16GVc_8niri_bar7modules7battery22resolve_battery_device
FN:310,_RNvNtNtCsgK501w16GVc_8niri_bar7modules7battery24select_battery_icon_name
FN:332,_RNvNtNtCsgK501w16GVc_8niri_bar7modules7battery26rebuild_power_profile_list
FN:103,_RNCNCNvMNtNtCsgK501w16GVc_8niri_bar7modules7batteryNtB6_13BatteryModule13create_widgets3_00Ba_
FN:127,_RNCNCNvMNtNtCsgK501w16GVc_8niri_bar7modules7batteryNtB6_13BatteryModule13create_widgets3_0s_0Ba_
FN:26,_RNCNvMNtNtCsgK501w16GVc_8niri_bar7modules7batteryNtB4_13BatteryModule13create_widget0B8_
FN:28,_RNCNvMNtNtCsgK501w16GVc_8niri_bar7modules7batteryNtB4_13BatteryModule13create_widgets0_0B8_
FN:32,_RNCNvMNtNtCsgK501w16GVc_8niri_bar7modules7batteryNtB4_13BatteryModule13create_widgets1_0B8_
FN:38,_RNCNvMNtNtCsgK501w16GVc_8niri_bar7modules7batteryNtB4_13BatteryModule13create_widgets2_0B8_
FN:93,_RNCNvMNtNtCsgK501w16GVc_8niri_bar7modules7batteryNtB4_13BatteryModule13create_widgets3_0B8_
FN:139,_RNCNvMNtNtCsgK501w16GVc_8niri_bar7modules7batteryNtB4_13BatteryModule13create_widgets4_0B8_
FN:173,_RNCNvMNtNtCsgK501w16GVc_8niri_bar7modules7batteryNtB4_13BatteryModule13create_widgets5_0B8_
FN:27,_RNCNvMNtNtCsgK501w16GVc_8niri_bar7modules7batteryNtB4_13BatteryModule13create_widgets_0B8_
FN:300,_RNCNvNtNtCsgK501w16GVc_8niri_bar7modules7battery20update_battery_label0B7_
FN:344,_RNCNvNtNtCsgK501w16GVc_8niri_bar7modules7battery26rebuild_power_profile_list0B7_
FN:345,_RNCNvNtNtCsgK501w16GVc_8niri_bar7modules7battery26rebuild_power_profile_lists_0B7_
FN:21,_RNvMNtNtCsgmIDG9vGii7_8niri_bar7modules7batteryNtB2_13BatteryModule13create_widget
FN:245,_RNvNtNtCsgmIDG9vGii7_8niri_bar7modules7battery20update_battery_label
FN:222,_RNvNtNtCsgmIDG9vGii7_8niri_bar7modules7battery21find_powerprofilesctl
FN:193,_RNvNtNtCsgmIDG9vGii7_8niri_bar7modules7battery22resolve_battery_device
FN:310,_RNvNtNtCsgmIDG9vGii7_8niri_bar7modules7battery24select_battery_icon_name
FN:332,_RNvNtNtCsgmIDG9vGii7_8niri_bar7modules7battery26rebuild_power_profile_list
FN:103,_RNCNCNvMNtNtCsgmIDG9vGii7_8niri_bar7modules7batteryNtB6_13BatteryModule13create_widgets3_00Ba_
FN:127,_RNCNCNvMNtNtCsgmIDG9vGii7_8niri_bar7modules7batteryNtB6_13BatteryModule13create_widgets3_0s_0Ba_
FN:26,_RNCNvMNtNtCsgmIDG9vGii7_8niri_bar7modules7batteryNtB4_13BatteryModule13create_widget0B8_
FN:28,_RNCNvMNtNtCsgmIDG9vGii7_8niri_bar7modules7batteryNtB4_13BatteryModule13create_widgets0_0B8_
FN:32,_RNCNvMNtNtCsgmIDG9vGii7_8niri_bar7modules7batteryNtB4_13BatteryModule13create_widgets1_0B8_
FN:38,_RNCNvMNtNtCsgmIDG9vGii7_8niri_bar7modules7batteryNtB4_13BatteryModule13create_widgets2_0B8_
FN:93,_RNCNvMNtNtCsgmIDG9vGii7_8niri_bar7modules7batteryNtB4_13BatteryModule13create_widgets3_0B8_
FN:139,_RNCNvMNtNtCsgmIDG9vGii7_8niri_bar7modules7batteryNtB4_13BatteryModule13create_widgets4_0B8_
FN:173,_RNCNvMNtNtCsgmIDG9vGii7_8niri_bar7modules7batteryNtB4_13BatteryModule13create_widgets5_0B8_
FN:27,_RNCNvMNtNtCsgmIDG9vGii7_8niri_bar7modules7batteryNtB4_13BatteryModule13create_widgets_0B8_
FN:300,_RNCNvNtNtCsgmIDG9vGii7_8niri_bar7modules7battery20update_battery_label0B7_
FN:344,_RNCNvNtNtCsgmIDG9vGii7_8niri_bar7modules7battery26rebuild_power_profile_list0B7_
FN:345,_RNCNvNtNtCsgmIDG9vGii7_8niri_bar7modules7battery26rebuild_power_profile_lists_0B7_
FNDA:0,_RNvMNtNtCsgK501w16GVc_8niri_bar7modules7batteryNtB2_13BatteryModule13create_widget
FNDA:0,_RNvNtNtCsgK501w16GVc_8niri_bar7modules7battery20update_battery_label
FNDA:0,_RNvNtNtCsgK501w16GVc_8niri_bar7modules7battery21find_powerprofilesctl
FNDA:0,_RNvNtNtCsgK501w16GVc_8niri_bar7modules7battery22resolve_battery_device
FNDA:0,_RNvNtNtCsgK501w16GVc_8niri_bar7modules7battery24select_battery_icon_name
FNDA:0,_RNvNtNtCsgK501w16GVc_8niri_bar7modules7battery26rebuild_power_profile_list
FNDA:0,_RNCNCNvMNtNtCsgK501w16GVc_8niri_bar7modules7batteryNtB6_13BatteryModule13create_widgets3_00Ba_
FNDA:0,_RNCNCNvMNtNtCsgK501w16GVc_8niri_bar7modules7batteryNtB6_13BatteryModule13create_widgets3_0s_0Ba_
FNDA:0,_RNCNvMNtNtCsgK501w16GVc_8niri_bar7modules7batteryNtB4_13BatteryModule13create_widget0B8_
FNDA:0,_RNCNvMNtNtCsgK501w16GVc_8niri_bar7modules7batteryNtB4_13BatteryModule13create_widgets0_0B8_
FNDA:0,_RNCNvMNtNtCsgK501w16GVc_8niri_bar7modules7batteryNtB4_13BatteryModule13create_widgets1_0B8_
FNDA:0,_RNCNvMNtNtCsgK501w16GVc_8niri_bar7modules7batteryNtB4_13BatteryModule13create_widgets2_0B8_
FNDA:0,_RNCNvMNtNtCsgK501w16GVc_8niri_bar7modules7batteryNtB4_13BatteryModule13create_widgets3_0B8_
FNDA:0,_RNCNvMNtNtCsgK501w16GVc_8niri_bar7modules7batteryNtB4_13BatteryModule13create_widgets4_0B8_
FNDA:0,_RNCNvMNtNtCsgK501w16GVc_8niri_bar7modules7batteryNtB4_13BatteryModule13create_widgets5_0B8_
FNDA:0,_RNCNvMNtNtCsgK501w16GVc_8niri_bar7modules7batteryNtB4_13BatteryModule13create_widgets_0B8_
FNDA:0,_RNCNvNtNtCsgK501w16GVc_8niri_bar7modules7battery20update_battery_label0B7_
FNDA:0,_RNCNvNtNtCsgK501w16GVc_8niri_bar7modules7battery26rebuild_power_profile_list0B7_
FNDA:0,_RNCNvNtNtCsgK501w16GVc_8niri_bar7modules7battery26rebuild_power_profile_lists_0B7_
FNDA:0,_RNvMNtNtCsgmIDG9vGii7_8niri_bar7modules7batteryNtB2_13BatteryModule13create_widget
FNDA:0,_RNvNtNtCsgmIDG9vGii7_8niri_bar7modules7battery20update_battery_label
FNDA:0,_RNvNtNtCsgmIDG9vGii7_8niri_bar7modules7battery21find_powerprofilesctl
FNDA:0,_RNvNtNtCsgmIDG9vGii7_8niri_bar7modules7battery22resolve_battery_device
FNDA:0,_RNvNtNtCsgmIDG9vGii7_8niri_bar7modules7battery24select_battery_icon_name
FNDA:0,_RNvNtNtCsgmIDG9vGii7_8niri_bar7modules7battery26rebuild_power_profile_list
FNDA:0,_RNCNCNvMNtNtCsgmIDG9vGii7_8niri_bar7modules7batteryNtB6_13BatteryModule13create_widgets3_00Ba_
FNDA:0,_RNCNCNvMNtNtCsgmIDG9vGii7_8niri_bar7modules7batteryNtB6_13BatteryModule13create_widgets3_0s_0Ba_
FNDA:0,_RNCNvMNtNtCsgmIDG9vGii7_8niri_bar7modules7batteryNtB4_13BatteryModule13create_widget0B8_
FNDA:0,_RNCNvMNtNtCsgmIDG9vGii7_8niri_bar7modules7batteryNtB4_13BatteryModule13create_widgets0_0B8_
FNDA:0,_RNCNvMNtNtCsgmIDG9vGii7_8niri_bar7modules7batteryNtB4_13BatteryModule13create_widgets1_0B8_
FNDA:0,_RNCNvMNtNtCsgmIDG9vGii7_8niri_bar7modules7batteryNtB4_13BatteryModule13create_widgets2_0B8_
FNDA:0,_RNCNvMNtNtCsgmIDG9vGii7_8niri_bar7modules7batteryNtB4_13BatteryModule13create_widgets3_0B8_
FNDA:0,_RNCNvMNtNtCsgmIDG9vGii7_8niri_bar7modules7batteryNtB4_13BatteryModule13create_widgets4_0B8_
FNDA:0,_RNCNvMNtNtCsgmIDG9vGii7_8niri_bar7modules7batteryNtB4_13BatteryModule13create_widgets5_0B8_
FNDA:0,_RNCNvMNtNtCsgmIDG9vGii7_8niri_bar7modules7batteryNtB4_13BatteryModule13create_widgets_0B8_
FNDA:0,_RNCNvNtNtCsgmIDG9vGii7_8niri_bar7modules7battery20update_battery_label0B7_
FNDA:0,_RNCNvNtNtCsgmIDG9vGii7_8niri_bar7modules7battery26rebuild_power_profile_list0B7_
FNDA:0,_RNCNvNtNtCsgmIDG9vGii7_8niri_bar7modules7battery26rebuild_power_profile_lists_0B7_
FNF:19
FNH:0
DA:21,0
DA:23,0
DA:24,0
DA:25,0
DA:26,0
DA:27,0
DA:28,0
DA:29,0
DA:30,0
DA:31,0
DA:32,0
DA:33,0
DA:34,0
DA:35,0
DA:36,0
DA:37,0
DA:38,0
DA:39,0
DA:40,0
DA:41,0
DA:43,0
DA:44,0
DA:45,0
DA:46,0
DA:47,0
DA:48,0
DA:49,0
DA:52,0
DA:53,0
DA:54,0
DA:57,0
DA:58,0
DA:59,0
DA:60,0
DA:61,0
DA:63,0
DA:64,0
DA:65,0
DA:66,0
DA:67,0
DA:68,0
DA:71,0
DA:72,0
DA:73,0
DA:74,0
DA:75,0
DA:76,0
DA:78,0
DA:80,0
DA:83,0
DA:84,0
DA:85,0
DA:87,0
DA:88,0
DA:89,0
DA:90,0
DA:91,0
DA:93,0
DA:95,0
DA:96,0
DA:97,0
DA:99,0
DA:100,0
DA:101,0
DA:102,0
DA:103,0
DA:104,0
DA:105,0
DA:106,0
DA:107,0
DA:109,0
DA:112,0
DA:113,0
DA:116,0
DA:118,0
DA:119,0
DA:123,0
DA:125,0
DA:126,0
DA:127,0
DA:128,0
DA:129,0
DA:130,0
DA:131,0
DA:132,0
DA:134,0
DA:135,0
DA:136,0
DA:138,0
DA:139,0
DA:140,0
DA:141,0
DA:142,0
DA:143,0
DA:144,0
DA:145,0
DA:147,0
DA:148,0
DA:149,0
DA:152,0
DA:153,0
DA:154,0
DA:155,0
DA:158,0
DA:161,0
DA:162,0
DA:163,0
DA:164,0
DA:165,0
DA:167,0
DA:168,0
DA:169,0
DA:170,0
DA:171,0
DA:172,0
DA:173,0
DA:174,0
DA:175,0
DA:176,0
DA:177,0
DA:179,0
DA:183,0
DA:184,0
DA:185,0
DA:189,0
DA:190,0
DA:193,0
DA:194,0
DA:195,0
DA:196,0
DA:197,0
DA:198,0
DA:201,0
DA:202,0
DA:203,0
DA:204,0
DA:205,0
DA:206,0
DA:207,0
DA:210,0
DA:211,0
DA:212,0
DA:213,0
DA:215,0
DA:216,0
DA:218,0
DA:219,0
DA:220,0
DA:222,0
DA:224,0
DA:226,0
DA:227,0
DA:229,0
DA:230,0
DA:231,0
DA:232,0
DA:234,0
DA:235,0
DA:236,0
DA:237,0
DA:238,0
DA:239,0
DA:241,0
DA:242,0
DA:243,0
DA:245,0
DA:246,0
DA:247,0
DA:248,0
DA:249,0
DA:250,0
DA:251,0
DA:252,0
DA:253,0
DA:254,0
DA:255,0
DA:256,0
DA:257,0
DA:258,0
DA:259,0
DA:261,0
DA:262,0
DA:265,0
DA:266,0
DA:267,0
DA:268,0
DA:269,0
DA:270,0
DA:271,0
DA:272,0
DA:274,0
DA:275,0
DA:277,0
DA:279,0
DA:280,0
DA:283,0
DA:284,0
DA:285,0
DA:286,0
DA:287,0
DA:288,0
DA:289,0
DA:290,0
DA:291,0
DA:292,0
DA:295,0
DA:296,0
DA:297,0
DA:298,0
DA:299,0
DA:300,0
DA:301,0
DA:302,0
DA:303,0
DA:304,0
DA:305,0
DA:306,0
DA:307,0
DA:308,0
DA:310,0
DA:312,0
DA:313,0
DA:314,0
DA:315,0
DA:316,0
DA:317,0
DA:318,0
DA:319,0
DA:320,0
DA:321,0
DA:323,0
DA:325,0
DA:326,0
DA:328,0
DA:330,0
DA:332,0
DA:333,0
DA:334,0
DA:335,0
DA:336,0
DA:337,0
DA:338,0
DA:339,0
DA:340,0
DA:341,0
DA:342,0
DA:343,0
DA:344,0
DA:345,0
DA:346,0
DA:347,0
DA:348,0
DA:349,0
DA:351,0
DA:352,0
DA:353,0
DA:354,0
DA:355,0
DA:356,0
DA:357,0
DA:358,0
DA:360,0
DA:361,0
DA:362,0
DA:363,0
DA:365,0
BRF:0
BRH:0
LF:279
LH:0
end_of_record
SF:/home/rayben/Dropbox/PC/cachygram/niri-bar/src/modules/clock.rs
FN:31,_RNCNvMNtNtCsgK501w16GVc_8niri_bar7modules5clockNtB4_11ClockModule13create_widget0B8_
FN:13,_RNvMNtNtCsgK501w16GVc_8niri_bar7modules5clockNtB2_11ClockModule13create_widget
FN:46,_RNvXs_NtNtCsgK501w16GVc_8niri_bar7modules5clockNtB4_11ClockModuleNtB6_9BarModule2id
FN:49,_RNvXs_NtNtCsgK501w16GVc_8niri_bar7modules5clockNtB4_11ClockModuleNtB6_9BarModule6create
FN:13,_RNvMNtNtCsgmIDG9vGii7_8niri_bar7modules5clockNtB2_11ClockModule13create_widget
FN:46,_RNvXs_NtNtCsgmIDG9vGii7_8niri_bar7modules5clockNtB4_11ClockModuleNtB6_9BarModule2id
FN:49,_RNvXs_NtNtCsgmIDG9vGii7_8niri_bar7modules5clockNtB4_11ClockModuleNtB6_9BarModule6create
FN:31,_RNCNvMNtNtCsgmIDG9vGii7_8niri_bar7modules5clockNtB4_11ClockModule13create_widget0B8_
FNDA:0,_RNCNvMNtNtCsgK501w16GVc_8niri_bar7modules5clockNtB4_11ClockModule13create_widget0B8_
FNDA:0,_RNvMNtNtCsgK501w16GVc_8niri_bar7modules5clockNtB2_11ClockModule13create_widget
FNDA:0,_RNvXs_NtNtCsgK501w16GVc_8niri_bar7modules5clockNtB4_11ClockModuleNtB6_9BarModule2id
FNDA:0,_RNvXs_NtNtCsgK501w16GVc_8niri_bar7modules5clockNtB4_11ClockModuleNtB6_9BarModule6create
FNDA:0,_RNvMNtNtCsgmIDG9vGii7_8niri_bar7modules5clockNtB2_11ClockModule13create_widget
FNDA:0,_RNvXs_NtNtCsgmIDG9vGii7_8niri_bar7modules5clockNtB4_11ClockModuleNtB6_9BarModule2id
FNDA:0,_RNvXs_NtNtCsgmIDG9vGii7_8niri_bar7modules5clockNtB4_11ClockModuleNtB6_9BarModule6create
FNDA:0,_RNCNvMNtNtCsgmIDG9vGii7_8niri_bar7modules5clockNtB4_11ClockModule13create_widget0B8_
FNF:4
FNH:0
DA:13,0
DA:14,0
DA:15,0
DA:17,0
DA:18,0
DA:20,0
DA:21,0
DA:23,0
DA:24,0
DA:27,0
DA:28,0
DA:31,0
DA:32,0
DA:33,0
DA:34,0
DA:35,0
DA:37,0
DA:39,0
DA:41,0
DA:42,0
DA:46,0
DA:47,0
DA:48,0
DA:49,0
DA:50,0
DA:51,0
BRF:0
BRH:0
LF:27
LH:0
end_of_record
SF:/home/rayben/Dropbox/PC/cachygram/niri-bar/src/modules/mod.rs
FN:47,_RNvNtCsgK501w16GVc_8niri_bar7modules18resolve_identifier
FN:67,_RNvNtCsgK501w16GVc_8niri_bar7modules20create_module_widget
FN:74,_RNCNvNtCsgK501w16GVc_8niri_bar7modules20create_module_widget0B5_
FN:22,_RNCNvNtCsgK501w16GVc_8niri_bar7modules8REGISTRY0B5_
FN:74,_RNCNvNtCsgmIDG9vGii7_8niri_bar7modules20create_module_widget0B5_
FN:47,_RNvNtCsgmIDG9vGii7_8niri_bar7modules18resolve_identifier
FN:67,_RNvNtCsgmIDG9vGii7_8niri_bar7modules20create_module_widget
FN:22,_RNCNvNtCsgmIDG9vGii7_8niri_bar7modules8REGISTRY0B5_
FNDA:2,_RNvNtCsgK501w16GVc_8niri_bar7modules18resolve_identifier
FNDA:2,_RNvNtCsgK501w16GVc_8niri_bar7modules20create_module_widget
FNDA:0,_RNCNvNtCsgK501w16GVc_8niri_bar7modules20create_module_widget0B5_
FNDA:1,_RNCNvNtCsgK501w16GVc_8niri_bar7modules8REGISTRY0B5_
FNDA:0,_RNCNvNtCsgmIDG9vGii7_8niri_bar7modules20create_module_widget0B5_
FNDA:0,_RNvNtCsgmIDG9vGii7_8niri_bar7modules18resolve_identifier
FNDA:0,_RNvNtCsgmIDG9vGii7_8niri_bar7modules20create_module_widget
FNDA:0,_RNCNvNtCsgmIDG9vGii7_8niri_bar7modules8REGISTRY0B5_
FNF:4
FNH:3
DA:22,1
DA:23,1
DA:25,1
DA:26,1
DA:28,1
DA:30,1
DA:32,1
DA:34,1
DA:36,1
DA:38,1
DA:39,1
DA:41,1
DA:43,1
DA:44,1
DA:47,2
DA:48,2
DA:49,2
DA:67,2
DA:68,2
DA:69,2
DA:70,2
DA:71,2
DA:72,2
DA:73,2
DA:74,2
DA:75,2
BRF:0
BRH:0
LF:27
LH:26
end_of_record
SF:/home/rayben/Dropbox/PC/cachygram/niri-bar/src/modules/tray.rs
FN:11,_RNvMNtNtCsgK501w16GVc_8niri_bar7modules4trayNtB2_10TrayModule13create_widget
FN:11,_RNvMNtNtCsgmIDG9vGii7_8niri_bar7modules4trayNtB2_10TrayModule13create_widget
FNDA:0,_RNvMNtNtCsgK501w16GVc_8niri_bar7modules4trayNtB2_10TrayModule13create_widget
FNDA:0,_RNvMNtNtCsgmIDG9vGii7_8niri_bar7modules4trayNtB2_10TrayModule13create_widget
FNF:1
FNH:0
DA:11,0
DA:12,0
DA:13,0
DA:14,0
DA:15,0
DA:18,0
DA:19,0
DA:21,0
DA:22,0
BRF:0
BRH:0
LF:9
LH:0
end_of_record
SF:/home/rayben/Dropbox/PC/cachygram/niri-bar/src/modules/wallpaper.rs
FN:70,_RNCNCNvMNtNtCsgK501w16GVc_8niri_bar7modules9wallpaperNtB6_15WallpaperModule13create_widgets_0s_0Ba_
FN:30,_RNCNvMNtNtCsgK501w16GVc_8niri_bar7modules9wallpaperNtB4_15WallpaperModule13create_widget0B8_
FN:59,_RNCNvMNtNtCsgK501w16GVc_8niri_bar7modules9wallpaperNtB4_15WallpaperModule13create_widgets_0B8_
FN:159,_RNCNvMNtNtCsgK501w16GVc_8niri_bar7modules9wallpaperNtB4_15WallpaperModule23apply_wallpaper_command0B8_
FN:211,_RNCNvNtNtCsgK501w16GVc_8niri_bar7modules9wallpaper12find_in_path0B7_
FN:15,_RNvMNtNtCsgK501w16GVc_8niri_bar7modules9wallpaperNtB2_15WallpaperModule13create_widget
FN:114,_RNvMNtNtCsgK501w16GVc_8niri_bar7modules9wallpaperNtB2_15WallpaperModule23apply_wallpaper_command
FN:205,_RNvNtNtCsgK501w16GVc_8niri_bar7modules9wallpaper12find_in_path
FN:125,_RNvNvMNtNtCsgK501w16GVc_8niri_bar7modules9wallpaperNtB4_15WallpaperModule23apply_wallpaper_command12expand_tilde
FN:70,_RNCNCNvMNtNtCsgmIDG9vGii7_8niri_bar7modules9wallpaperNtB6_15WallpaperModule13create_widgets_0s_0Ba_
FN:30,_RNCNvMNtNtCsgmIDG9vGii7_8niri_bar7modules9wallpaperNtB4_15WallpaperModule13create_widget0B8_
FN:59,_RNCNvMNtNtCsgmIDG9vGii7_8niri_bar7modules9wallpaperNtB4_15WallpaperModule13create_widgets_0B8_
FN:159,_RNCNvMNtNtCsgmIDG9vGii7_8niri_bar7modules9wallpaperNtB4_15WallpaperModule23apply_wallpaper_command0B8_
FN:211,_RNCNvNtNtCsgmIDG9vGii7_8niri_bar7modules9wallpaper12find_in_path0B7_
FN:15,_RNvMNtNtCsgmIDG9vGii7_8niri_bar7modules9wallpaperNtB2_15WallpaperModule13create_widget
FN:114,_RNvMNtNtCsgmIDG9vGii7_8niri_bar7modules9wallpaperNtB2_15WallpaperModule23apply_wallpaper_command
FN:205,_RNvNtNtCsgmIDG9vGii7_8niri_bar7modules9wallpaper12find_in_path
FN:125,_RNvNvMNtNtCsgmIDG9vGii7_8niri_bar7modules9wallpaperNtB4_15WallpaperModule23apply_wallpaper_command12expand_tilde
FNDA:0,_RNCNCNvMNtNtCsgK501w16GVc_8niri_bar7modules9wallpaperNtB6_15WallpaperModule13create_widgets_0s_0Ba_
FNDA:0,_RNCNvMNtNtCsgK501w16GVc_8niri_bar7modules9wallpaperNtB4_15WallpaperModule13create_widget0B8_
FNDA:0,_RNCNvMNtNtCsgK501w16GVc_8niri_bar7modules9wallpaperNtB4_15WallpaperModule13create_widgets_0B8_
FNDA:0,_RNCNvMNtNtCsgK501w16GVc_8niri_bar7modules9wallpaperNtB4_15WallpaperModule23apply_wallpaper_command0B8_
FNDA:0,_RNCNvNtNtCsgK501w16GVc_8niri_bar7modules9wallpaper12find_in_path0B7_
FNDA:0,_RNvMNtNtCsgK501w16GVc_8niri_bar7modules9wallpaperNtB2_15WallpaperModule13create_widget
FNDA:0,_RNvMNtNtCsgK501w16GVc_8niri_bar7modules9wallpaperNtB2_15WallpaperModule23apply_wallpaper_command
FNDA:0,_RNvNtNtCsgK501w16GVc_8niri_bar7modules9wallpaper12find_in_path
FNDA:0,_RNvNvMNtNtCsgK501w16GVc_8niri_bar7modules9wallpaperNtB4_15WallpaperModule23apply_wallpaper_command12expand_tilde
FNDA:0,_RNCNCNvMNtNtCsgmIDG9vGii7_8niri_bar7modules9wallpaperNtB6_15WallpaperModule13create_widgets_0s_0Ba_
FNDA:0,_RNCNvMNtNtCsgmIDG9vGii7_8niri_bar7modules9wallpaperNtB4_15WallpaperModule13create_widget0B8_
FNDA:0,_RNCNvMNtNtCsgmIDG9vGii7_8niri_bar7modules9wallpaperNtB4_15WallpaperModule13create_widgets_0B8_
FNDA:0,_RNCNvMNtNtCsgmIDG9vGii7_8niri_bar7modules9wallpaperNtB4_15WallpaperModule23apply_wallpaper_command0B8_
FNDA:0,_RNCNvNtNtCsgmIDG9vGii7_8niri_bar7modules9wallpaper12find_in_path0B7_
FNDA:0,_RNvMNtNtCsgmIDG9vGii7_8niri_bar7modules9wallpaperNtB2_15WallpaperModule13create_widget
FNDA:0,_RNvMNtNtCsgmIDG9vGii7_8niri_bar7modules9wallpaperNtB2_15WallpaperModule23apply_wallpaper_command
FNDA:0,_RNvNtNtCsgmIDG9vGii7_8niri_bar7modules9wallpaper12find_in_path
FNDA:0,_RNvNvMNtNtCsgmIDG9vGii7_8niri_bar7modules9wallpaperNtB4_15WallpaperModule23apply_wallpaper_command12expand_tilde
FNF:9
FNH:0
DA:15,0
DA:17,0
DA:18,0
DA:20,0
DA:21,0
DA:22,0
DA:23,0
DA:26,0
DA:28,0
DA:29,0
DA:30,0
DA:31,0
DA:32,0
DA:33,0
DA:34,0
DA:36,0
DA:37,0
DA:38,0
DA:39,0
DA:40,0
DA:41,0
DA:42,0
DA:43,0
DA:44,0
DA:45,0
DA:46,0
DA:48,0
DA:49,0
DA:50,0
DA:54,0
DA:57,0
DA:58,0
DA:59,0
DA:60,0
DA:61,0
DA:62,0
DA:63,0
DA:64,0
DA:66,0
DA:67,0
DA:68,0
DA:69,0
DA:70,0
DA:71,0
DA:72,0
DA:74,0
DA:76,0
DA:77,0
DA:78,0
DA:79,0
DA:81,0
DA:82,0
DA:83,0
DA:84,0
DA:85,0
DA:88,0
DA:89,0
DA:90,0
DA:91,0
DA:95,0
DA:96,0
DA:97,0
DA:98,0
DA:99,0
DA:101,0
DA:102,0
DA:103,0
DA:104,0
DA:105,0
DA:107,0
DA:109,0
DA:111,0
DA:112,0
DA:114,0
DA:115,0
DA:116,0
DA:117,0
DA:118,0
DA:119,0
DA:120,0
DA:121,0
DA:125,0
DA:126,0
DA:127,0
DA:129,0
DA:131,0
DA:133,0
DA:135,0
DA:136,0
DA:137,0
DA:138,0
DA:142,0
DA:143,0
DA:145,0
DA:146,0
DA:147,0
DA:148,0
DA:149,0
DA:150,0
DA:151,0
DA:152,0
DA:154,0
DA:156,0
DA:157,0
DA:158,0
DA:159,0
DA:160,0
DA:161,0
DA:162,0
DA:164,0
DA:165,0
DA:168,0
DA:169,0
DA:170,0
DA:171,0
DA:172,0
DA:173,0
DA:174,0
DA:175,0
DA:176,0
DA:177,0
DA:178,0
DA:179,0
DA:180,0
DA:181,0
DA:182,0
DA:183,0
DA:184,0
DA:185,0
DA:186,0
DA:187,0
DA:188,0
DA:189,0
DA:190,0
DA:192,0
DA:193,0
DA:194,0
DA:195,0
DA:196,0
DA:197,0
DA:198,0
DA:199,0
DA:200,0
DA:201,0
DA:202,0
DA:205,0
DA:207,0
DA:208,0
DA:209,0
DA:210,0
DA:211,0
DA:212,0
DA:214,0
DA:215,0
DA:216,0
BRF:0
BRH:0
LF:160
LH:0
end_of_record
SF:/home/rayben/Dropbox/PC/cachygram/niri-bar/src/modules/window_title.rs
FN:31,_RNCNvMNtNtCsgK501w16GVc_8niri_bar7modules12window_titleNtB4_17WindowTitleModule13create_widget0B8_
FN:12,_RNvMNtNtCsgK501w16GVc_8niri_bar7modules12window_titleNtB2_17WindowTitleModule13create_widget
FN:12,_RNvMNtNtCsgmIDG9vGii7_8niri_bar7modules12window_titleNtB2_17WindowTitleModule13create_widget
FN:31,_RNCNvMNtNtCsgmIDG9vGii7_8niri_bar7modules12window_titleNtB4_17WindowTitleModule13create_widget0B8_
FNDA:0,_RNCNvMNtNtCsgK501w16GVc_8niri_bar7modules12window_titleNtB4_17WindowTitleModule13create_widget0B8_
FNDA:0,_RNvMNtNtCsgK501w16GVc_8niri_bar7modules12window_titleNtB2_17WindowTitleModule13create_widget
FNDA:0,_RNvMNtNtCsgmIDG9vGii7_8niri_bar7modules12window_titleNtB2_17WindowTitleModule13create_widget
FNDA:0,_RNCNvMNtNtCsgmIDG9vGii7_8niri_bar7modules12window_titleNtB4_17WindowTitleModule13create_widget0B8_
FNF:2
FNH:0
DA:12,0
DA:13,0
DA:14,0
DA:15,0
DA:17,0
DA:18,0
DA:23,0
DA:24,0
DA:25,0
DA:26,0
DA:27,0
DA:30,0
DA:31,0
DA:32,0
DA:33,0
DA:34,0
DA:35,0
DA:37,0
DA:39,0
DA:41,0
DA:42,0
BRF:0
BRH:0
LF:22
LH:0
end_of_record
SF:/home/rayben/Dropbox/PC/cachygram/niri-bar/src/modules/workspaces.rs
FN:367,_RNCNvNtNtCsgK501w16GVc_8niri_bar7modules10workspaces12find_in_path0B7_
FN:403,_RNCNvNtNtCsgK501w16GVc_8niri_bar7modules10workspaces23apply_wallpaper_command0B7_
FN:361,_RNvNtNtCsgK501w16GVc_8niri_bar7modules10workspaces12find_in_path
FN:375,_RNvNtNtCsgK501w16GVc_8niri_bar7modules10workspaces23apply_wallpaper_command
FN:322,_RNvNtNtCsgK501w16GVc_8niri_bar7modules10workspaces28query_current_wallpaper_path
FN:68,_RNCNCNvMNtNtCsgK501w16GVc_8niri_bar7modules10workspacesNtB6_16WorkspacesModule13create_widgets0_00Ba_
FN:149,_RNCNCNvMNtNtCsgK501w16GVc_8niri_bar7modules10workspacesNtB6_16WorkspacesModule13create_widgets1_00Ba_
FN:26,_RNCNvMNtNtCsgK501w16GVc_8niri_bar7modules10workspacesNtB4_16WorkspacesModule13create_widget0B8_
FN:61,_RNCNvMNtNtCsgK501w16GVc_8niri_bar7modules10workspacesNtB4_16WorkspacesModule13create_widgets0_0B8_
FN:105,_RNCNvMNtNtCsgK501w16GVc_8niri_bar7modules10workspacesNtB4_16WorkspacesModule13create_widgets1_0B8_
FN:31,_RNCNvMNtNtCsgK501w16GVc_8niri_bar7modules10workspacesNtB4_16WorkspacesModule13create_widgets_0B8_
FN:182,_RNCNvMNtNtCsgK501w16GVc_8niri_bar7modules10workspacesNtB4_16WorkspacesModule15rebuild_buttons0B8_
FN:239,_RNCNvMNtNtCsgK501w16GVc_8niri_bar7modules10workspacesNtB4_16WorkspacesModule15rebuild_buttonss0_0B8_
FN:263,_RNCNvMNtNtCsgK501w16GVc_8niri_bar7modules10workspacesNtB4_16WorkspacesModule15rebuild_buttonss1_0B8_
FN:227,_RNCNvMNtNtCsgK501w16GVc_8niri_bar7modules10workspacesNtB4_16WorkspacesModule15rebuild_buttonss_0B8_
FN:17,_RNvMNtNtCsgK501w16GVc_8niri_bar7modules10workspacesNtB2_16WorkspacesModule13create_widget
FN:161,_RNvMNtNtCsgK501w16GVc_8niri_bar7modules10workspacesNtB2_16WorkspacesModule15rebuild_buttons
FN:311,_RNvNtNtCsgK501w16GVc_8niri_bar7modules10workspaces12expand_tilde
FN:290,_RNvNtNtCsgK501w16GVc_8niri_bar7modules10workspaces20set_background_image
FN:421,_RNvNtNtCsgK501w16GVc_8niri_bar7modules10workspaces27resolve_workspace_wallpaper
FN:17,_RNvMNtNtCsgmIDG9vGii7_8niri_bar7modules10workspacesNtB2_16WorkspacesModule13create_widget
FN:161,_RNvMNtNtCsgmIDG9vGii7_8niri_bar7modules10workspacesNtB2_16WorkspacesModule15rebuild_buttons
FN:311,_RNvNtNtCsgmIDG9vGii7_8niri_bar7modules10workspaces12expand_tilde
FN:290,_RNvNtNtCsgmIDG9vGii7_8niri_bar7modules10workspaces20set_background_image
FN:421,_RNvNtNtCsgmIDG9vGii7_8niri_bar7modules10workspaces27resolve_workspace_wallpaper
FN:367,_RNCNvNtNtCsgmIDG9vGii7_8niri_bar7modules10workspaces12find_in_path0B7_
FN:403,_RNCNvNtNtCsgmIDG9vGii7_8niri_bar7modules10workspaces23apply_wallpaper_command0B7_
FN:361,_RNvNtNtCsgmIDG9vGii7_8niri_bar7modules10workspaces12find_in_path
FN:375,_RNvNtNtCsgmIDG9vGii7_8niri_bar7modules10workspaces23apply_wallpaper_command
FN:322,_RNvNtNtCsgmIDG9vGii7_8niri_bar7modules10workspaces28query_current_wallpaper_path
FN:68,_RNCNCNvMNtNtCsgmIDG9vGii7_8niri_bar7modules10workspacesNtB6_16WorkspacesModule13create_widgets0_00Ba_
FN:149,_RNCNCNvMNtNtCsgmIDG9vGii7_8niri_bar7modules10workspacesNtB6_16WorkspacesModule13create_widgets1_00Ba_
FN:26,_RNCNvMNtNtCsgmIDG9vGii7_8niri_bar7modules10workspacesNtB4_16WorkspacesModule13create_widget0B8_
FN:61,_RNCNvMNtNtCsgmIDG9vGii7_8niri_bar7modules10workspacesNtB4_16WorkspacesModule13create_widgets0_0B8_
FN:105,_RNCNvMNtNtCsgmIDG9vGii7_8niri_bar7modules10workspacesNtB4_16WorkspacesModule13create_widgets1_0B8_
FN:31,_RNCNvMNtNtCsgmIDG9vGii7_8niri_bar7modules10workspacesNtB4_16WorkspacesModule13create_widgets_0B8_
FN:182,_RNCNvMNtNtCsgmIDG9vGii7_8niri_bar7modules10workspacesNtB4_16WorkspacesModule15rebuild_buttons0B8_
FN:239,_RNCNvMNtNtCsgmIDG9vGii7_8niri_bar7modules10workspacesNtB4_16WorkspacesModule15rebuild_buttonss0_0B8_
FN:263,_RNCNvMNtNtCsgmIDG9vGii7_8niri_bar7modules10workspacesNtB4_16WorkspacesModule15rebuild_buttonss1_0B8_
FN:227,_RNCNvMNtNtCsgmIDG9vGii7_8niri_bar7modules10workspacesNtB4_16WorkspacesModule15rebuild_buttonss_0B8_
FNDA:0,_RNCNvNtNtCsgK501w16GVc_8niri_bar7modules10workspaces12find_in_path0B7_
FNDA:0,_RNCNvNtNtCsgK501w16GVc_8niri_bar7modules10workspaces23apply_wallpaper_command0B7_
FNDA:0,_RNvNtNtCsgK501w16GVc_8niri_bar7modules10workspaces12find_in_path
FNDA:0,_RNvNtNtCsgK501w16GVc_8niri_bar7modules10workspaces23apply_wallpaper_command
FNDA:0,_RNvNtNtCsgK501w16GVc_8niri_bar7modules10workspaces28query_current_wallpaper_path
FNDA:0,_RNCNCNvMNtNtCsgK501w16GVc_8niri_bar7modules10workspacesNtB6_16WorkspacesModule13create_widgets0_00Ba_
FNDA:0,_RNCNCNvMNtNtCsgK501w16GVc_8niri_bar7modules10workspacesNtB6_16WorkspacesModule13create_widgets1_00Ba_
FNDA:0,_RNCNvMNtNtCsgK501w16GVc_8niri_bar7modules10workspacesNtB4_16WorkspacesModule13create_widget0B8_
FNDA:0,_RNCNvMNtNtCsgK501w16GVc_8niri_bar7modules10workspacesNtB4_16WorkspacesModule13create_widgets0_0B8_
FNDA:0,_RNCNvMNtNtCsgK501w16GVc_8niri_bar7modules10workspacesNtB4_16WorkspacesModule13create_widgets1_0B8_
FNDA:0,_RNCNvMNtNtCsgK501w16GVc_8niri_bar7modules10workspacesNtB4_16WorkspacesModule13create_widgets_0B8_
FNDA:0,_RNCNvMNtNtCsgK501w16GVc_8niri_bar7modules10workspacesNtB4_16WorkspacesModule15rebuild_buttons0B8_
FNDA:0,_RNCNvMNtNtCsgK501w16GVc_8niri_bar7modules10workspacesNtB4_16WorkspacesModule15rebuild_buttonss0_0B8_
FNDA:0,_RNCNvMNtNtCsgK501w16GVc_8niri_bar7modules10workspacesNtB4_16WorkspacesModule15rebuild_buttonss1_0B8_
FNDA:0,_RNCNvMNtNtCsgK501w16GVc_8niri_bar7modules10workspacesNtB4_16WorkspacesModule15rebuild_buttonss_0B8_
FNDA:0,_RNvMNtNtCsgK501w16GVc_8niri_bar7modules10workspacesNtB2_16WorkspacesModule13create_widget
FNDA:0,_RNvMNtNtCsgK501w16GVc_8niri_bar7modules10workspacesNtB2_16WorkspacesModule15rebuild_buttons
FNDA:0,_RNvNtNtCsgK501w16GVc_8niri_bar7modules10workspaces12expand_tilde
FNDA:0,_RNvNtNtCsgK501w16GVc_8niri_bar7modules10workspaces20set_background_image
FNDA:3,_RNvNtNtCsgK501w16GVc_8niri_bar7modules10workspaces27resolve_workspace_wallpaper
FNDA:0,_RNvMNtNtCsgmIDG9vGii7_8niri_bar7modules10workspacesNtB2_16WorkspacesModule13create_widget
FNDA:0,_RNvMNtNtCsgmIDG9vGii7_8niri_bar7modules10workspacesNtB2_16WorkspacesModule15rebuild_buttons
FNDA:0,_RNvNtNtCsgmIDG9vGii7_8niri_bar7modules10workspaces12expand_tilde
FNDA:0,_RNvNtNtCsgmIDG9vGii7_8niri_bar7modules10workspaces20set_background_image
FNDA:0,_RNvNtNtCsgmIDG9vGii7_8niri_bar7modules10workspaces27resolve_workspace_wallpaper
FNDA:0,_RNCNvNtNtCsgmIDG9vGii7_8niri_bar7modules10workspaces12find_in_path0B7_
FNDA:0,_RNCNvNtNtCsgmIDG9vGii7_8niri_bar7modules10workspaces23apply_wallpaper_command0B7_
FNDA:0,_RNvNtNtCsgmIDG9vGii7_8niri_bar7modules10workspaces12find_in_path
FNDA:0,_RNvNtNtCsgmIDG9vGii7_8niri_bar7modules10workspaces23apply_wallpaper_command
FNDA:0,_RNvNtNtCsgmIDG9vGii7_8niri_bar7modules10workspaces28query_current_wallpaper_path
FNDA:0,_RNCNCNvMNtNtCsgmIDG9vGii7_8niri_bar7modules10workspacesNtB6_16WorkspacesModule13create_widgets0_00Ba_
FNDA:0,_RNCNCNvMNtNtCsgmIDG9vGii7_8niri_bar7modules10workspacesNtB6_16WorkspacesModule13create_widgets1_00Ba_
FNDA:0,_RNCNvMNtNtCsgmIDG9vGii7_8niri_bar7modules10workspacesNtB4_16WorkspacesModule13create_widget0B8_
FNDA:0,_RNCNvMNtNtCsgmIDG9vGii7_8niri_bar7modules10workspacesNtB4_16WorkspacesModule13create_widgets0_0B8_
FNDA:0,_RNCNvMNtNtCsgmIDG9vGii7_8niri_bar7modules10workspacesNtB4_16WorkspacesModule13create_widgets1_0B8_
FNDA:0,_RNCNvMNtNtCsgmIDG9vGii7_8niri_bar7modules10workspacesNtB4_16WorkspacesModule13create_widgets_0B8_
FNDA:0,_RNCNvMNtNtCsgmIDG9vGii7_8niri_bar7modules10workspacesNtB4_16WorkspacesModule15rebuild_buttons0B8_
FNDA:0,_RNCNvMNtNtCsgmIDG9vGii7_8niri_bar7modules10workspacesNtB4_16WorkspacesModule15rebuild_buttonss0_0B8_
FNDA:0,_RNCNvMNtNtCsgmIDG9vGii7_8niri_bar7modules10workspacesNtB4_16WorkspacesModule15rebuild_buttonss1_0B8_
FNDA:0,_RNCNvMNtNtCsgmIDG9vGii7_8niri_bar7modules10workspacesNtB4_16WorkspacesModule15rebuild_buttonss_0B8_
FNF:20
FNH:1
DA:17,0
DA:18,0
DA:19,0
DA:20,0
DA:21,0
DA:22,0
DA:23,0
DA:24,0
DA:25,0
DA:26,0
DA:27,0
DA:28,0
DA:29,0
DA:30,0
DA:31,0
DA:32,0
DA:34,0
DA:35,0
DA:38,0
DA:41,0
DA:42,0
DA:45,0
DA:46,0
DA:47,0
DA:48,0
DA:49,0
DA:50,0
DA:51,0
DA:55,0
DA:56,0
DA:57,0
DA:59,0
DA:60,0
DA:61,0
DA:62,0
DA:64,0
DA:65,0
DA:66,0
DA:67,0
DA:68,0
DA:69,0
DA:70,0
DA:71,0
DA:72,0
DA:73,0
DA:74,0
DA:76,0
DA:79,0
DA:80,0
DA:81,0
DA:82,0
DA:83,0
DA:84,0
DA:85,0
DA:86,0
DA:87,0
DA:88,0
DA:89,0
DA:91,0
DA:93,0
DA:96,0
DA:97,0
DA:98,0
DA:99,0
DA:100,0
DA:101,0
DA:102,0
DA:103,0
DA:105,0
DA:106,0
DA:107,0
DA:108,0
DA:111,0
DA:112,0
DA:113,0
DA:114,0
DA:116,0
DA:117,0
DA:120,0
DA:122,0
DA:123,0
DA:124,0
DA:126,0
DA:127,0
DA:128,0
DA:130,0
DA:132,0
DA:133,0
DA:135,0
DA:137,0
DA:138,0
DA:139,0
DA:142,0
DA:143,0
DA:147,0
DA:148,0
DA:149,0
DA:150,0
DA:151,0
DA:152,0
DA:153,0
DA:154,0
DA:155,0
DA:158,0
DA:159,0
DA:161,0
DA:162,0
DA:163,0
DA:164,0
DA:165,0
DA:166,0
DA:167,0
DA:168,0
DA:170,0
DA:171,0
DA:172,0
DA:174,0
DA:175,0
DA:177,0
DA:178,0
DA:179,0
DA:182,0
DA:184,0
DA:185,0
DA:187,0
DA:188,0
DA:191,0
DA:192,0
DA:193,0
DA:195,0
DA:196,0
DA:197,0
DA:198,0
DA:199,0
DA:200,0
DA:202,0
DA:203,0
DA:204,0
DA:205,0
DA:207,0
DA:208,0
DA:209,0
DA:210,0
DA:211,0
DA:212,0
DA:213,0
DA:214,0
DA:215,0
DA:216,0
DA:217,0
DA:218,0
DA:219,0
DA:220,0
DA:221,0
DA:222,0
DA:223,0
DA:225,0
DA:226,0
DA:227,0
DA:228,0
DA:229,0
DA:230,0
DA:231,0
DA:232,0
DA:233,0
DA:234,0
DA:235,0
DA:237,0
DA:238,0
DA:239,0
DA:240,0
DA:241,0
DA:245,0
DA:246,0
DA:247,0
DA:250,0
DA:251,0
DA:256,0
DA:259,0
DA:260,0
DA:261,0
DA:262,0
DA:263,0
DA:264,0
DA:265,0
DA:269,0
DA:270,0
DA:271,0
DA:274,0
DA:275,0
DA:280,0
DA:281,0
DA:282,0
DA:284,0
DA:286,0
DA:290,0
DA:292,0
DA:293,0
DA:294,0
DA:296,0
DA:299,0
DA:300,0
DA:301,0
DA:302,0
DA:303,0
DA:305,0
DA:306,0
DA:307,0
DA:308,0
DA:309,0
DA:311,0
DA:312,0
DA:313,0
DA:315,0
DA:317,0
DA:319,0
DA:322,0
DA:324,0
DA:325,0
DA:326,0
DA:327,0
DA:329,0
DA:330,0
DA:331,0
DA:332,0
DA:333,0
DA:334,0
DA:335,0
DA:337,0
DA:340,0
DA:341,0
DA:343,0
DA:344,0
DA:346,0
DA:347,0
DA:348,0
DA:349,0
DA:351,0
DA:352,0
DA:353,0
DA:354,0
DA:355,0
DA:356,0
DA:357,0
DA:358,0
DA:361,0
DA:363,0
DA:364,0
DA:365,0
DA:366,0
DA:367,0
DA:368,0
DA:370,0
DA:371,0
DA:372,0
DA:375,0
DA:378,0
DA:379,0
DA:380,0
DA:381,0
DA:385,0
DA:386,0
DA:388,0
DA:389,0
DA:391,0
DA:392,0
DA:393,0
DA:394,0
DA:395,0
DA:396,0
DA:397,0
DA:398,0
DA:400,0
DA:401,0
DA:402,0
DA:403,0
DA:404,0
DA:406,0
DA:407,0
DA:408,0
DA:409,0
DA:410,0
DA:411,0
DA:412,0
DA:413,0
DA:414,0
DA:415,0
DA:416,0
DA:417,0
DA:418,0
DA:419,0
DA:421,3
DA:422,3
DA:423,3
DA:424,3
DA:425,3
DA:426,3
DA:427,3
DA:430,3
DA:431,1
DA:432,2
DA:433,2
DA:434,1
DA:435,1
DA:438,1
DA:439,3
BRF:0
BRH:0
LF:318
LH:15
end_of_record
SF:/home/rayben/Dropbox/PC/cachygram/niri-bar/src/monitor.rs
FN:189,_RNvMNtCsgK501w16GVc_8niri_bar7monitorNtB2_7Monitor10print_info
FN:177,_RNvMNtCsgK501w16GVc_8niri_bar7monitorNtB2_7Monitor11destroy_bar
FN:105,_RNvMNtCsgK501w16GVc_8niri_bar7monitorNtB2_7Monitor11get_bar_mut
FN:131,_RNvMNtCsgK501w16GVc_8niri_bar7monitorNtB2_7Monitor12update_theme
FN:65,_RNvMNtCsgK501w16GVc_8niri_bar7monitorNtB2_7Monitor13get_connector
FN:143,_RNvMNtCsgK501w16GVc_8niri_bar7monitorNtB2_7Monitor14update_columns
FN:95,_RNvMNtCsgK501w16GVc_8niri_bar7monitorNtB2_7Monitor15get_gdk_monitor
FN:75,_RNvMNtCsgK501w16GVc_8niri_bar7monitorNtB2_7Monitor16get_logical_size
FN:85,_RNvMNtCsgK501w16GVc_8niri_bar7monitorNtB2_7Monitor16get_manufacturer
FN:80,_RNvMNtCsgK501w16GVc_8niri_bar7monitorNtB2_7Monitor16get_scale_factor
FN:203,_RNvMNtCsgK501w16GVc_8niri_bar7monitorNtB2_7Monitor17matches_connector
FN:172,_RNvMNtCsgK501w16GVc_8niri_bar7monitorNtB2_7Monitor18update_bar_content
FN:155,_RNvMNtCsgK501w16GVc_8niri_bar7monitorNtB2_7Monitor25update_columns_with_specs
FN:27,_RNvMNtCsgK501w16GVc_8niri_bar7monitorNtB2_7Monitor3new
FN:208,_RNvMNtCsgK501w16GVc_8niri_bar7monitorNtB2_7Monitor6get_id
FN:100,_RNvMNtCsgK501w16GVc_8niri_bar7monitorNtB2_7Monitor7get_bar
FN:110,_RNvMNtCsgK501w16GVc_8niri_bar7monitorNtB2_7Monitor7has_bar
FN:70,_RNvMNtCsgK501w16GVc_8niri_bar7monitorNtB2_7Monitor8get_info
FN:123,_RNvMNtCsgK501w16GVc_8niri_bar7monitorNtB2_7Monitor8hide_bar
FN:115,_RNvMNtCsgK501w16GVc_8niri_bar7monitorNtB2_7Monitor8show_bar
FN:90,_RNvMNtCsgK501w16GVc_8niri_bar7monitorNtB2_7Monitor9get_model
FN:214,_RNvXs_NtCsgK501w16GVc_8niri_bar7monitorNtB4_7MonitorNtNtCs66KPHxksi63_4core3cmp9PartialEq2eq
FN:46,_RNCNvMNtCsgK501w16GVc_8niri_bar7monitorNtB4_7Monitor3new0B6_
FN:47,_RNCNvMNtCsgK501w16GVc_8niri_bar7monitorNtB4_7Monitor3news_0B6_
FN:46,_RNCNvMNtCsgmIDG9vGii7_8niri_bar7monitorNtB4_7Monitor3new0B6_
FN:47,_RNCNvMNtCsgmIDG9vGii7_8niri_bar7monitorNtB4_7Monitor3news_0B6_
FN:189,_RNvMNtCsgmIDG9vGii7_8niri_bar7monitorNtB2_7Monitor10print_info
FN:177,_RNvMNtCsgmIDG9vGii7_8niri_bar7monitorNtB2_7Monitor11destroy_bar
FN:105,_RNvMNtCsgmIDG9vGii7_8niri_bar7monitorNtB2_7Monitor11get_bar_mut
FN:131,_RNvMNtCsgmIDG9vGii7_8niri_bar7monitorNtB2_7Monitor12update_theme
FN:65,_RNvMNtCsgmIDG9vGii7_8niri_bar7monitorNtB2_7Monitor13get_connector
FN:143,_RNvMNtCsgmIDG9vGii7_8niri_bar7monitorNtB2_7Monitor14update_columns
FN:95,_RNvMNtCsgmIDG9vGii7_8niri_bar7monitorNtB2_7Monitor15get_gdk_monitor
FN:75,_RNvMNtCsgmIDG9vGii7_8niri_bar7monitorNtB2_7Monitor16get_logical_size
FN:85,_RNvMNtCsgmIDG9vGii7_8niri_bar7monitorNtB2_7Monitor16get_manufacturer
FN:80,_RNvMNtCsgmIDG9vGii7_8niri_bar7monitorNtB2_7Monitor16get_scale_factor
FN:203,_RNvMNtCsgmIDG9vGii7_8niri_bar7monitorNtB2_7Monitor17matches_connector
FN:172,_RNvMNtCsgmIDG9vGii7_8niri_bar7monitorNtB2_7Monitor18update_bar_content
FN:155,_RNvMNtCsgmIDG9vGii7_8niri_bar7monitorNtB2_7Monitor25update_columns_with_specs
FN:27,_RNvMNtCsgmIDG9vGii7_8niri_bar7monitorNtB2_7Monitor3new
FN:208,_RNvMNtCsgmIDG9vGii7_8niri_bar7monitorNtB2_7Monitor6get_id
FN:100,_RNvMNtCsgmIDG9vGii7_8niri_bar7monitorNtB2_7Monitor7get_bar
FN:110,_RNvMNtCsgmIDG9vGii7_8niri_bar7monitorNtB2_7Monitor7has_bar
FN:70,_RNvMNtCsgmIDG9vGii7_8niri_bar7monitorNtB2_7Monitor8get_info
FN:123,_RNvMNtCsgmIDG9vGii7_8niri_bar7monitorNtB2_7Monitor8hide_bar
FN:115,_RNvMNtCsgmIDG9vGii7_8niri_bar7monitorNtB2_7Monitor8show_bar
FN:90,_RNvMNtCsgmIDG9vGii7_8niri_bar7monitorNtB2_7Monitor9get_model
FN:214,_RNvXs_NtCsgmIDG9vGii7_8niri_bar7monitorNtB4_7MonitorNtNtCs66KPHxksi63_4core3cmp9PartialEq2eq
FNDA:0,_RNvMNtCsgK501w16GVc_8niri_bar7monitorNtB2_7Monitor10print_info
FNDA:0,_RNvMNtCsgK501w16GVc_8niri_bar7monitorNtB2_7Monitor11destroy_bar
FNDA:0,_RNvMNtCsgK501w16GVc_8niri_bar7monitorNtB2_7Monitor11get_bar_mut
FNDA:0,_RNvMNtCsgK501w16GVc_8niri_bar7monitorNtB2_7Monitor12update_theme
FNDA:0,_RNvMNtCsgK501w16GVc_8niri_bar7monitorNtB2_7Monitor13get_connector
FNDA:0,_RNvMNtCsgK501w16GVc_8niri_bar7monitorNtB2_7Monitor14update_columns
FNDA:0,_RNvMNtCsgK501w16GVc_8niri_bar7monitorNtB2_7Monitor15get_gdk_monitor
FNDA:0,_RNvMNtCsgK501w16GVc_8niri_bar7monitorNtB2_7Monitor16get_logical_size
FNDA:0,_RNvMNtCsgK501w16GVc_8niri_bar7monitorNtB2_7Monitor16get_manufacturer
FNDA:0,_RNvMNtCsgK501w16GVc_8niri_bar7monitorNtB2_7Monitor16get_scale_factor
FNDA:0,_RNvMNtCsgK501w16GVc_8niri_bar7monitorNtB2_7Monitor17matches_connector
FNDA:0,_RNvMNtCsgK501w16GVc_8niri_bar7monitorNtB2_7Monitor18update_bar_content
FNDA:0,_RNvMNtCsgK501w16GVc_8niri_bar7monitorNtB2_7Monitor25update_columns_with_specs
FNDA:0,_RNvMNtCsgK501w16GVc_8niri_bar7monitorNtB2_7Monitor3new
FNDA:0,_RNvMNtCsgK501w16GVc_8niri_bar7monitorNtB2_7Monitor6get_id
FNDA:0,_RNvMNtCsgK501w16GVc_8niri_bar7monitorNtB2_7Monitor7get_bar
FNDA:0,_RNvMNtCsgK501w16GVc_8niri_bar7monitorNtB2_7Monitor7has_bar
FNDA:0,_RNvMNtCsgK501w16GVc_8niri_bar7monitorNtB2_7Monitor8get_info
FNDA:0,_RNvMNtCsgK501w16GVc_8niri_bar7monitorNtB2_7Monitor8hide_bar
FNDA:0,_RNvMNtCsgK501w16GVc_8niri_bar7monitorNtB2_7Monitor8show_bar
FNDA:0,_RNvMNtCsgK501w16GVc_8niri_bar7monitorNtB2_7Monitor9get_model
FNDA:0,_RNvXs_NtCsgK501w16GVc_8niri_bar7monitorNtB4_7MonitorNtNtCs66KPHxksi63_4core3cmp9PartialEq2eq
FNDA:0,_RNCNvMNtCsgK501w16GVc_8niri_bar7monitorNtB4_7Monitor3new0B6_
FNDA:0,_RNCNvMNtCsgK501w16GVc_8niri_bar7monitorNtB4_7Monitor3news_0B6_
FNDA:0,_RNCNvMNtCsgmIDG9vGii7_8niri_bar7monitorNtB4_7Monitor3new0B6_
FNDA:0,_RNCNvMNtCsgmIDG9vGii7_8niri_bar7monitorNtB4_7Monitor3news_0B6_
FNDA:0,_RNvMNtCsgmIDG9vGii7_8niri_bar7monitorNtB2_7Monitor10print_info
FNDA:0,_RNvMNtCsgmIDG9vGii7_8niri_bar7monitorNtB2_7Monitor11destroy_bar
FNDA:0,_RNvMNtCsgmIDG9vGii7_8niri_bar7monitorNtB2_7Monitor11get_bar_mut
FNDA:0,_RNvMNtCsgmIDG9vGii7_8niri_bar7monitorNtB2_7Monitor12update_theme
FNDA:0,_RNvMNtCsgmIDG9vGii7_8niri_bar7monitorNtB2_7Monitor13get_connector
FNDA:0,_RNvMNtCsgmIDG9vGii7_8niri_bar7monitorNtB2_7Monitor14update_columns
FNDA:0,_RNvMNtCsgmIDG9vGii7_8niri_bar7monitorNtB2_7Monitor15get_gdk_monitor
FNDA:0,_RNvMNtCsgmIDG9vGii7_8niri_bar7monitorNtB2_7Monitor16get_logical_size
FNDA:0,_RNvMNtCsgmIDG9vGii7_8niri_bar7monitorNtB2_7Monitor16get_manufacturer
FNDA:0,_RNvMNtCsgmIDG9vGii7_8niri_bar7monitorNtB2_7Monitor16get_scale_factor
FNDA:0,_RNvMNtCsgmIDG9vGii7_8niri_bar7monitorNtB2_7Monitor17matches_connector
FNDA:0,_RNvMNtCsgmIDG9vGii7_8niri_bar7monitorNtB2_7Monitor18update_bar_content
FNDA:0,_RNvMNtCsgmIDG9vGii7_8niri_bar7monitorNtB2_7Monitor25update_columns_with_specs
FNDA:0,_RNvMNtCsgmIDG9vGii7_8niri_bar7monitorNtB2_7Monitor3new
FNDA:0,_RNvMNtCsgmIDG9vGii7_8niri_bar7monitorNtB2_7Monitor6get_id
FNDA:0,_RNvMNtCsgmIDG9vGii7_8niri_bar7monitorNtB2_7Monitor7get_bar
FNDA:0,_RNvMNtCsgmIDG9vGii7_8niri_bar7monitorNtB2_7Monitor7has_bar
FNDA:0,_RNvMNtCsgmIDG9vGii7_8niri_bar7monitorNtB2_7Monitor8get_info
FNDA:0,_RNvMNtCsgmIDG9vGii7_8niri_bar7monitorNtB2_7Monitor8hide_bar
FNDA:0,_RNvMNtCsgmIDG9vGii7_8niri_bar7monitorNtB2_7Monitor8show_bar
FNDA:0,_RNvMNtCsgmIDG9vGii7_8niri_bar7monitorNtB2_7Monitor9get_model
FNDA:0,_RNvXs_NtCsgmIDG9vGii7_8niri_bar7monitorNtB4_7MonitorNtNtCs66KPHxksi63_4core3cmp9PartialEq2eq
FNF:24
FNH:0
DA:27,0
DA:28,0
DA:29,0
DA:30,0
DA:31,0
DA:32,0
DA:33,0
DA:34,0
DA:35,0
DA:36,0
DA:44,0
DA:45,0
DA:46,0
DA:47,0
DA:48,0
DA:49,0
DA:53,0
DA:55,0
DA:57,0
DA:58,0
DA:59,0
DA:60,0
DA:61,0
DA:62,0
DA:65,0
DA:66,0
DA:67,0
DA:70,0
DA:71,0
DA:72,0
DA:75,0
DA:76,0
DA:77,0
DA:80,0
DA:81,0
DA:82,0
DA:85,0
DA:86,0
DA:87,0
DA:90,0
DA:91,0
DA:92,0
DA:95,0
DA:96,0
DA:97,0
DA:100,0
DA:101,0
DA:102,0
DA:105,0
DA:106,0
DA:107,0
DA:110,0
DA:111,0
DA:112,0
DA:115,0
DA:116,0
DA:117,0
DA:118,0
DA:119,0
DA:120,0
DA:123,0
DA:124,0
DA:125,0
DA:126,0
DA:127,0
DA:128,0
DA:131,0
DA:132,0
DA:133,0
DA:134,0
DA:138,0
DA:139,0
DA:140,0
DA:143,0
DA:144,0
DA:145,0
DA:146,0
DA:150,0
DA:151,0
DA:152,0
DA:155,0
DA:156,0
DA:157,0
DA:158,0
DA:159,0
DA:160,0
DA:161,0
DA:162,0
DA:163,0
DA:165,0
DA:167,0
DA:168,0
DA:169,0
DA:172,0
DA:173,0
DA:174,0
DA:177,0
DA:178,0
DA:179,0
DA:180,0
DA:183,0
DA:184,0
DA:185,0
DA:186,0
DA:189,0
DA:190,0
DA:191,0
DA:192,0
DA:193,0
DA:194,0
DA:198,0
DA:199,0
DA:200,0
DA:203,0
DA:204,0
DA:205,0
DA:208,0
DA:209,0
DA:210,0
DA:214,0
DA:215,0
DA:216,0
BRF:0
BRH:0
LF:124
LH:0
end_of_record
SF:/home/rayben/Dropbox/PC/cachygram/niri-bar/src/niri/mod.rs
FN:284,_RNCNCNCNvMs_NtCsgK501w16GVc_8niri_bar4niriNtBa_7NiriBus11handle_jsonsn_000Bc_
FN:284,_RNCNCNvMs_NtCsgK501w16GVc_8niri_bar4niriNtB8_7NiriBus11handle_jsonsn_00Ba_
FN:65,_RNCNvMNtCsgK501w16GVc_8niri_bar4niriNtB4_7NiriIpc12send_request0B6_
FN:28,_RNCNvMNtCsgK501w16GVc_8niri_bar4niriNtB4_7NiriIpc18start_event_stream0B6_
FN:20,_RNCNvMNtCsgK501w16GVc_8niri_bar4niriNtB4_7NiriIpc3new0B6_
FN:470,_RNCNvMs0_NtCsgK501w16GVc_8niri_bar4niriNtB7_7NiriBus16is_overview_open0B9_
FN:381,_RNCNvMs0_NtCsgK501w16GVc_8niri_bar4niriNtB7_7NiriBus19workspaces_snapshot0B9_
FN:458,_RNCNvMs0_NtCsgK501w16GVc_8niri_bar4niriNtB7_7NiriBus25keyboard_layouts_snapshot0B9_
FN:464,_RNCNvMs0_NtCsgK501w16GVc_8niri_bar4niriNtB7_7NiriBus25keyboard_layouts_snapshots_0B9_
FN:140,_RNCNvMs_NtCsgK501w16GVc_8niri_bar4niriNtB6_7NiriBus11handle_json0B8_
FN:148,_RNCNvMs_NtCsgK501w16GVc_8niri_bar4niriNtB6_7NiriBus11handle_jsons0_0B8_
FN:149,_RNCNvMs_NtCsgK501w16GVc_8niri_bar4niriNtB6_7NiriBus11handle_jsons1_0B8_
FN:156,_RNCNvMs_NtCsgK501w16GVc_8niri_bar4niriNtB6_7NiriBus11handle_jsons2_0B8_
FN:157,_RNCNvMs_NtCsgK501w16GVc_8niri_bar4niriNtB6_7NiriBus11handle_jsons3_0B8_
FN:164,_RNCNvMs_NtCsgK501w16GVc_8niri_bar4niriNtB6_7NiriBus11handle_jsons4_0B8_
FN:174,_RNCNvMs_NtCsgK501w16GVc_8niri_bar4niriNtB6_7NiriBus11handle_jsons5_0B8_
FN:175,_RNCNvMs_NtCsgK501w16GVc_8niri_bar4niriNtB6_7NiriBus11handle_jsons6_0B8_
FN:191,_RNCNvMs_NtCsgK501w16GVc_8niri_bar4niriNtB6_7NiriBus11handle_jsons7_0B8_
FN:192,_RNCNvMs_NtCsgK501w16GVc_8niri_bar4niriNtB6_7NiriBus11handle_jsons8_0B8_
FN:208,_RNCNvMs_NtCsgK501w16GVc_8niri_bar4niriNtB6_7NiriBus11handle_jsons9_0B8_
FN:141,_RNCNvMs_NtCsgK501w16GVc_8niri_bar4niriNtB6_7NiriBus11handle_jsons_0B8_
FN:209,_RNCNvMs_NtCsgK501w16GVc_8niri_bar4niriNtB6_7NiriBus11handle_jsonsa_0B8_
FN:221,_RNCNvMs_NtCsgK501w16GVc_8niri_bar4niriNtB6_7NiriBus11handle_jsonsb_0B8_
FN:222,_RNCNvMs_NtCsgK501w16GVc_8niri_bar4niriNtB6_7NiriBus11handle_jsonsc_0B8_
FN:228,_RNCNvMs_NtCsgK501w16GVc_8niri_bar4niriNtB6_7NiriBus11handle_jsonsd_0B8_
FN:229,_RNCNvMs_NtCsgK501w16GVc_8niri_bar4niriNtB6_7NiriBus11handle_jsonse_0B8_
FN:232,_RNCNvMs_NtCsgK501w16GVc_8niri_bar4niriNtB6_7NiriBus11handle_jsonsf_0B8_
FN:233,_RNCNvMs_NtCsgK501w16GVc_8niri_bar4niriNtB6_7NiriBus11handle_jsonsg_0B8_
FN:236,_RNCNvMs_NtCsgK501w16GVc_8niri_bar4niriNtB6_7NiriBus11handle_jsonsh_0B8_
FN:249,_RNCNvMs_NtCsgK501w16GVc_8niri_bar4niriNtB6_7NiriBus11handle_jsonsi_0B8_
FN:276,_RNCNvMs_NtCsgK501w16GVc_8niri_bar4niriNtB6_7NiriBus11handle_jsonsk_0B8_
FN:277,_RNCNvMs_NtCsgK501w16GVc_8niri_bar4niriNtB6_7NiriBus11handle_jsonsl_0B8_
FN:281,_RNCNvMs_NtCsgK501w16GVc_8niri_bar4niriNtB6_7NiriBus11handle_jsonsm_0B8_
FN:282,_RNCNvMs_NtCsgK501w16GVc_8niri_bar4niriNtB6_7NiriBus11handle_jsonsn_0B8_
FN:290,_RNCNvMs_NtCsgK501w16GVc_8niri_bar4niriNtB6_7NiriBus11handle_jsonso_0B8_
FN:291,_RNCNvMs_NtCsgK501w16GVc_8niri_bar4niriNtB6_7NiriBus11handle_jsonsp_0B8_
FN:303,_RNCNvMs_NtCsgK501w16GVc_8niri_bar4niriNtB6_7NiriBus11handle_jsonsq_0B8_
FN:304,_RNCNvMs_NtCsgK501w16GVc_8niri_bar4niriNtB6_7NiriBus11handle_jsonsr_0B8_
FN:114,_RNCNvMs_NtCsgK501w16GVc_8niri_bar4niriNtB6_7NiriBus13current_title0B8_
FN:354,_RNCNvMs_NtCsgK501w16GVc_8niri_bar4niriNtB6_7NiriBus20ingest_window_object0B8_
FN:355,_RNCNvMs_NtCsgK501w16GVc_8niri_bar4niriNtB6_7NiriBus20ingest_window_objects_0B8_
FN:320,_RNCNvMs_NtCsgK501w16GVc_8niri_bar4niriNtB6_7NiriBus20ingest_windows_array0B8_
FN:333,_RNCNvMs_NtCsgK501w16GVc_8niri_bar4niriNtB6_7NiriBus20ingest_windows_arrays0_0B8_
FN:321,_RNCNvMs_NtCsgK501w16GVc_8niri_bar4niriNtB6_7NiriBus20ingest_windows_arrays_0B8_
FN:371,_RNCNvNtCsgK501w16GVc_8niri_bar4niri8NIRI_BUS0B5_
FN:61,_RNvMNtCsgK501w16GVc_8niri_bar4niriNtB2_7NiriIpc12send_request
FN:26,_RNvMNtCsgK501w16GVc_8niri_bar4niriNtB2_7NiriIpc18start_event_stream
FN:19,_RNvMNtCsgK501w16GVc_8niri_bar4niriNtB2_7NiriIpc3new
FN:469,_RNvMs0_NtCsgK501w16GVc_8niri_bar4niriNtB5_7NiriBus16is_overview_open
FN:378,_RNvMs0_NtCsgK501w16GVc_8niri_bar4niriNtB5_7NiriBus19workspaces_snapshot
FN:395,_RNvMs0_NtCsgK501w16GVc_8niri_bar4niriNtB5_7NiriBus22next_prev_workspace_id
FN:385,_RNvMs0_NtCsgK501w16GVc_8niri_bar4niriNtB5_7NiriBus23focused_workspace_index
FN:424,_RNvMs0_NtCsgK501w16GVc_8niri_bar4niriNtB5_7NiriBus23next_prev_workspace_idx
FN:454,_RNvMs0_NtCsgK501w16GVc_8niri_bar4niriNtB5_7NiriBus25keyboard_layouts_snapshot
FN:474,_RNvMs0_NtCsgK501w16GVc_8niri_bar4niriNtB5_7NiriBus5reset
FN:135,_RNvMs_NtCsgK501w16GVc_8niri_bar4niriNtB4_7NiriBus11handle_json
FN:113,_RNvMs_NtCsgK501w16GVc_8niri_bar4niriNtB4_7NiriBus13current_title
FN:127,_RNvMs_NtCsgK501w16GVc_8niri_bar4niriNtB4_7NiriBus16handle_json_line
FN:352,_RNvMs_NtCsgK501w16GVc_8niri_bar4niriNtB4_7NiriBus20ingest_window_object
FN:313,_RNvMs_NtCsgK501w16GVc_8niri_bar4niriNtB4_7NiriBus20ingest_windows_array
FN:125,_RNvMs_NtCsgK501w16GVc_8niri_bar4niriNtB4_7NiriBus21queue_broadcast_title
FN:102,_RNvMs_NtCsgK501w16GVc_8niri_bar4niriNtB4_7NiriBus3new
FN:497,_RNvNtCsgK501w16GVc_8niri_bar4niri17send_json_request
FN:503,_RNvNtCsgK501w16GVc_8niri_bar4niri21focus_workspace_index
FN:373,_RNvNtCsgK501w16GVc_8niri_bar4niri8niri_bus
FN:284,_RNCNCNCNvMs_NtCsgmIDG9vGii7_8niri_bar4niriNtBa_7NiriBus11handle_jsonsn_000Bc_
FN:284,_RNCNCNvMs_NtCsgmIDG9vGii7_8niri_bar4niriNtB8_7NiriBus11handle_jsonsn_00Ba_
FN:28,_RNCNvMNtCsgmIDG9vGii7_8niri_bar4niriNtB4_7NiriIpc18start_event_stream0B6_
FN:470,_RNCNvMs0_NtCsgmIDG9vGii7_8niri_bar4niriNtB7_7NiriBus16is_overview_open0B9_
FN:458,_RNCNvMs0_NtCsgmIDG9vGii7_8niri_bar4niriNtB7_7NiriBus25keyboard_layouts_snapshot0B9_
FN:464,_RNCNvMs0_NtCsgmIDG9vGii7_8niri_bar4niriNtB7_7NiriBus25keyboard_layouts_snapshots_0B9_
FN:140,_RNCNvMs_NtCsgmIDG9vGii7_8niri_bar4niriNtB6_7NiriBus11handle_json0B8_
FN:148,_RNCNvMs_NtCsgmIDG9vGii7_8niri_bar4niriNtB6_7NiriBus11handle_jsons0_0B8_
FN:149,_RNCNvMs_NtCsgmIDG9vGii7_8niri_bar4niriNtB6_7NiriBus11handle_jsons1_0B8_
FN:156,_RNCNvMs_NtCsgmIDG9vGii7_8niri_bar4niriNtB6_7NiriBus11handle_jsons2_0B8_
FN:157,_RNCNvMs_NtCsgmIDG9vGii7_8niri_bar4niriNtB6_7NiriBus11handle_jsons3_0B8_
FN:164,_RNCNvMs_NtCsgmIDG9vGii7_8niri_bar4niriNtB6_7NiriBus11handle_jsons4_0B8_
FN:174,_RNCNvMs_NtCsgmIDG9vGii7_8niri_bar4niriNtB6_7NiriBus11handle_jsons5_0B8_
FN:175,_RNCNvMs_NtCsgmIDG9vGii7_8niri_bar4niriNtB6_7NiriBus11handle_jsons6_0B8_
FN:191,_RNCNvMs_NtCsgmIDG9vGii7_8niri_bar4niriNtB6_7NiriBus11handle_jsons7_0B8_
FN:192,_RNCNvMs_NtCsgmIDG9vGii7_8niri_bar4niriNtB6_7NiriBus11handle_jsons8_0B8_
FN:208,_RNCNvMs_NtCsgmIDG9vGii7_8niri_bar4niriNtB6_7NiriBus11handle_jsons9_0B8_
FN:141,_RNCNvMs_NtCsgmIDG9vGii7_8niri_bar4niriNtB6_7NiriBus11handle_jsons_0B8_
FN:209,_RNCNvMs_NtCsgmIDG9vGii7_8niri_bar4niriNtB6_7NiriBus11handle_jsonsa_0B8_
FN:221,_RNCNvMs_NtCsgmIDG9vGii7_8niri_bar4niriNtB6_7NiriBus11handle_jsonsb_0B8_
FN:222,_RNCNvMs_NtCsgmIDG9vGii7_8niri_bar4niriNtB6_7NiriBus11handle_jsonsc_0B8_
FN:228,_RNCNvMs_NtCsgmIDG9vGii7_8niri_bar4niriNtB6_7NiriBus11handle_jsonsd_0B8_
FN:229,_RNCNvMs_NtCsgmIDG9vGii7_8niri_bar4niriNtB6_7NiriBus11handle_jsonse_0B8_
FN:232,_RNCNvMs_NtCsgmIDG9vGii7_8niri_bar4niriNtB6_7NiriBus11handle_jsonsf_0B8_
FN:233,_RNCNvMs_NtCsgmIDG9vGii7_8niri_bar4niriNtB6_7NiriBus11handle_jsonsg_0B8_
FN:236,_RNCNvMs_NtCsgmIDG9vGii7_8niri_bar4niriNtB6_7NiriBus11handle_jsonsh_0B8_
FN:249,_RNCNvMs_NtCsgmIDG9vGii7_8niri_bar4niriNtB6_7NiriBus11handle_jsonsi_0B8_
FN:276,_RNCNvMs_NtCsgmIDG9vGii7_8niri_bar4niriNtB6_7NiriBus11handle_jsonsk_0B8_
FN:277,_RNCNvMs_NtCsgmIDG9vGii7_8niri_bar4niriNtB6_7NiriBus11handle_jsonsl_0B8_
FN:281,_RNCNvMs_NtCsgmIDG9vGii7_8niri_bar4niriNtB6_7NiriBus11handle_jsonsm_0B8_
FN:282,_RNCNvMs_NtCsgmIDG9vGii7_8niri_bar4niriNtB6_7NiriBus11handle_jsonsn_0B8_
FN:290,_RNCNvMs_NtCsgmIDG9vGii7_8niri_bar4niriNtB6_7NiriBus11handle_jsonso_0B8_
FN:291,_RNCNvMs_NtCsgmIDG9vGii7_8niri_bar4niriNtB6_7NiriBus11handle_jsonsp_0B8_
FN:303,_RNCNvMs_NtCsgmIDG9vGii7_8niri_bar4niriNtB6_7NiriBus11handle_jsonsq_0B8_
FN:304,_RNCNvMs_NtCsgmIDG9vGii7_8niri_bar4niriNtB6_7NiriBus11handle_jsonsr_0B8_
FN:354,_RNCNvMs_NtCsgmIDG9vGii7_8niri_bar4niriNtB6_7NiriBus20ingest_window_object0B8_
FN:355,_RNCNvMs_NtCsgmIDG9vGii7_8niri_bar4niriNtB6_7NiriBus20ingest_window_objects_0B8_
FN:320,_RNCNvMs_NtCsgmIDG9vGii7_8niri_bar4niriNtB6_7NiriBus20ingest_windows_array0B8_
FN:333,_RNCNvMs_NtCsgmIDG9vGii7_8niri_bar4niriNtB6_7NiriBus20ingest_windows_arrays0_0B8_
FN:321,_RNCNvMs_NtCsgmIDG9vGii7_8niri_bar4niriNtB6_7NiriBus20ingest_windows_arrays_0B8_
FN:26,_RNvMNtCsgmIDG9vGii7_8niri_bar4niriNtB2_7NiriIpc18start_event_stream
FN:469,_RNvMs0_NtCsgmIDG9vGii7_8niri_bar4niriNtB5_7NiriBus16is_overview_open
FN:395,_RNvMs0_NtCsgmIDG9vGii7_8niri_bar4niriNtB5_7NiriBus22next_prev_workspace_id
FN:385,_RNvMs0_NtCsgmIDG9vGii7_8niri_bar4niriNtB5_7NiriBus23focused_workspace_index
FN:454,_RNvMs0_NtCsgmIDG9vGii7_8niri_bar4niriNtB5_7NiriBus25keyboard_layouts_snapshot
FN:474,_RNvMs0_NtCsgmIDG9vGii7_8niri_bar4niriNtB5_7NiriBus5reset
FN:135,_RNvMs_NtCsgmIDG9vGii7_8niri_bar4niriNtB4_7NiriBus11handle_json
FN:127,_RNvMs_NtCsgmIDG9vGii7_8niri_bar4niriNtB4_7NiriBus16handle_json_line
FN:352,_RNvMs_NtCsgmIDG9vGii7_8niri_bar4niriNtB4_7NiriBus20ingest_window_object
FN:313,_RNvMs_NtCsgmIDG9vGii7_8niri_bar4niriNtB4_7NiriBus20ingest_windows_array
FN:125,_RNvMs_NtCsgmIDG9vGii7_8niri_bar4niriNtB4_7NiriBus21queue_broadcast_title
FN:65,_RNCNvMNtCsgmIDG9vGii7_8niri_bar4niriNtB4_7NiriIpc12send_request0B6_
FN:20,_RNCNvMNtCsgmIDG9vGii7_8niri_bar4niriNtB4_7NiriIpc3new0B6_
FN:381,_RNCNvMs0_NtCsgmIDG9vGii7_8niri_bar4niriNtB7_7NiriBus19workspaces_snapshot0B9_
FN:114,_RNCNvMs_NtCsgmIDG9vGii7_8niri_bar4niriNtB6_7NiriBus13current_title0B8_
FN:371,_RNCNvNtCsgmIDG9vGii7_8niri_bar4niri8NIRI_BUS0B5_
FN:61,_RNvMNtCsgmIDG9vGii7_8niri_bar4niriNtB2_7NiriIpc12send_request
FN:19,_RNvMNtCsgmIDG9vGii7_8niri_bar4niriNtB2_7NiriIpc3new
FN:378,_RNvMs0_NtCsgmIDG9vGii7_8niri_bar4niriNtB5_7NiriBus19workspaces_snapshot
FN:424,_RNvMs0_NtCsgmIDG9vGii7_8niri_bar4niriNtB5_7NiriBus23next_prev_workspace_idx
FN:113,_RNvMs_NtCsgmIDG9vGii7_8niri_bar4niriNtB4_7NiriBus13current_title
FN:102,_RNvMs_NtCsgmIDG9vGii7_8niri_bar4niriNtB4_7NiriBus3new
FN:497,_RNvNtCsgmIDG9vGii7_8niri_bar4niri17send_json_request
FN:503,_RNvNtCsgmIDG9vGii7_8niri_bar4niri21focus_workspace_index
FN:373,_RNvNtCsgmIDG9vGii7_8niri_bar4niri8niri_bus
FNDA:2,_RNCNCNCNvMs_NtCsgK501w16GVc_8niri_bar4niriNtBa_7NiriBus11handle_jsonsn_000Bc_
FNDA:2,_RNCNCNvMs_NtCsgK501w16GVc_8niri_bar4niriNtB8_7NiriBus11handle_jsonsn_00Ba_
FNDA:0,_RNCNvMNtCsgK501w16GVc_8niri_bar4niriNtB4_7NiriIpc12send_request0B6_
FNDA:0,_RNCNvMNtCsgK501w16GVc_8niri_bar4niriNtB4_7NiriIpc18start_event_stream0B6_
FNDA:0,_RNCNvMNtCsgK501w16GVc_8niri_bar4niriNtB4_7NiriIpc3new0B6_
FNDA:2,_RNCNvMs0_NtCsgK501w16GVc_8niri_bar4niriNtB7_7NiriBus16is_overview_open0B9_
FNDA:1,_RNCNvMs0_NtCsgK501w16GVc_8niri_bar4niriNtB7_7NiriBus19workspaces_snapshot0B9_
FNDA:1,_RNCNvMs0_NtCsgK501w16GVc_8niri_bar4niriNtB7_7NiriBus25keyboard_layouts_snapshot0B9_
FNDA:1,_RNCNvMs0_NtCsgK501w16GVc_8niri_bar4niriNtB7_7NiriBus25keyboard_layouts_snapshots_0B9_
FNDA:1,_RNCNvMs_NtCsgK501w16GVc_8niri_bar4niriNtB6_7NiriBus11handle_json0B8_
FNDA:0,_RNCNvMs_NtCsgK501w16GVc_8niri_bar4niriNtB6_7NiriBus11handle_jsons0_0B8_
FNDA:0,_RNCNvMs_NtCsgK501w16GVc_8niri_bar4niriNtB6_7NiriBus11handle_jsons1_0B8_
FNDA:0,_RNCNvMs_NtCsgK501w16GVc_8niri_bar4niriNtB6_7NiriBus11handle_jsons2_0B8_
FNDA:0,_RNCNvMs_NtCsgK501w16GVc_8niri_bar4niriNtB6_7NiriBus11handle_jsons3_0B8_
FNDA:0,_RNCNvMs_NtCsgK501w16GVc_8niri_bar4niriNtB6_7NiriBus11handle_jsons4_0B8_
FNDA:0,_RNCNvMs_NtCsgK501w16GVc_8niri_bar4niriNtB6_7NiriBus11handle_jsons5_0B8_
FNDA:0,_RNCNvMs_NtCsgK501w16GVc_8niri_bar4niriNtB6_7NiriBus11handle_jsons6_0B8_
FNDA:0,_RNCNvMs_NtCsgK501w16GVc_8niri_bar4niriNtB6_7NiriBus11handle_jsons7_0B8_
FNDA:0,_RNCNvMs_NtCsgK501w16GVc_8niri_bar4niriNtB6_7NiriBus11handle_jsons8_0B8_
FNDA:1,_RNCNvMs_NtCsgK501w16GVc_8niri_bar4niriNtB6_7NiriBus11handle_jsons9_0B8_
FNDA:1,_RNCNvMs_NtCsgK501w16GVc_8niri_bar4niriNtB6_7NiriBus11handle_jsons_0B8_
FNDA:1,_RNCNvMs_NtCsgK501w16GVc_8niri_bar4niriNtB6_7NiriBus11handle_jsonsa_0B8_
FNDA:2,_RNCNvMs_NtCsgK501w16GVc_8niri_bar4niriNtB6_7NiriBus11handle_jsonsb_0B8_
FNDA:2,_RNCNvMs_NtCsgK501w16GVc_8niri_bar4niriNtB6_7NiriBus11handle_jsonsc_0B8_
FNDA:4,_RNCNvMs_NtCsgK501w16GVc_8niri_bar4niriNtB6_7NiriBus11handle_jsonsd_0B8_
FNDA:4,_RNCNvMs_NtCsgK501w16GVc_8niri_bar4niriNtB6_7NiriBus11handle_jsonse_0B8_
FNDA:4,_RNCNvMs_NtCsgK501w16GVc_8niri_bar4niriNtB6_7NiriBus11handle_jsonsf_0B8_
FNDA:4,_RNCNvMs_NtCsgK501w16GVc_8niri_bar4niriNtB6_7NiriBus11handle_jsonsg_0B8_
FNDA:4,_RNCNvMs_NtCsgK501w16GVc_8niri_bar4niriNtB6_7NiriBus11handle_jsonsh_0B8_
FNDA:2,_RNCNvMs_NtCsgK501w16GVc_8niri_bar4niriNtB6_7NiriBus11handle_jsonsi_0B8_
FNDA:1,_RNCNvMs_NtCsgK501w16GVc_8niri_bar4niriNtB6_7NiriBus11handle_jsonsk_0B8_
FNDA:1,_RNCNvMs_NtCsgK501w16GVc_8niri_bar4niriNtB6_7NiriBus11handle_jsonsl_0B8_
FNDA:1,_RNCNvMs_NtCsgK501w16GVc_8niri_bar4niriNtB6_7NiriBus11handle_jsonsm_0B8_
FNDA:1,_RNCNvMs_NtCsgK501w16GVc_8niri_bar4niriNtB6_7NiriBus11handle_jsonsn_0B8_
FNDA:1,_RNCNvMs_NtCsgK501w16GVc_8niri_bar4niriNtB6_7NiriBus11handle_jsonso_0B8_
FNDA:1,_RNCNvMs_NtCsgK501w16GVc_8niri_bar4niriNtB6_7NiriBus11handle_jsonsp_0B8_
FNDA:2,_RNCNvMs_NtCsgK501w16GVc_8niri_bar4niriNtB6_7NiriBus11handle_jsonsq_0B8_
FNDA:2,_RNCNvMs_NtCsgK501w16GVc_8niri_bar4niriNtB6_7NiriBus11handle_jsonsr_0B8_
FNDA:1,_RNCNvMs_NtCsgK501w16GVc_8niri_bar4niriNtB6_7NiriBus13current_title0B8_
FNDA:0,_RNCNvMs_NtCsgK501w16GVc_8niri_bar4niriNtB6_7NiriBus20ingest_window_object0B8_
FNDA:0,_RNCNvMs_NtCsgK501w16GVc_8niri_bar4niriNtB6_7NiriBus20ingest_window_objects_0B8_
FNDA:1,_RNCNvMs_NtCsgK501w16GVc_8niri_bar4niriNtB6_7NiriBus20ingest_windows_array0B8_
FNDA:1,_RNCNvMs_NtCsgK501w16GVc_8niri_bar4niriNtB6_7NiriBus20ingest_windows_arrays0_0B8_
FNDA:1,_RNCNvMs_NtCsgK501w16GVc_8niri_bar4niriNtB6_7NiriBus20ingest_windows_arrays_0B8_
FNDA:1,_RNCNvNtCsgK501w16GVc_8niri_bar4niri8NIRI_BUS0B5_
FNDA:0,_RNvMNtCsgK501w16GVc_8niri_bar4niriNtB2_7NiriIpc12send_request
FNDA:0,_RNvMNtCsgK501w16GVc_8niri_bar4niriNtB2_7NiriIpc18start_event_stream
FNDA:0,_RNvMNtCsgK501w16GVc_8niri_bar4niriNtB2_7NiriIpc3new
FNDA:2,_RNvMs0_NtCsgK501w16GVc_8niri_bar4niriNtB5_7NiriBus16is_overview_open
FNDA:1,_RNvMs0_NtCsgK501w16GVc_8niri_bar4niriNtB5_7NiriBus19workspaces_snapshot
FNDA:0,_RNvMs0_NtCsgK501w16GVc_8niri_bar4niriNtB5_7NiriBus22next_prev_workspace_id
FNDA:0,_RNvMs0_NtCsgK501w16GVc_8niri_bar4niriNtB5_7NiriBus23focused_workspace_index
FNDA:0,_RNvMs0_NtCsgK501w16GVc_8niri_bar4niriNtB5_7NiriBus23next_prev_workspace_idx
FNDA:1,_RNvMs0_NtCsgK501w16GVc_8niri_bar4niriNtB5_7NiriBus25keyboard_layouts_snapshot
FNDA:2,_RNvMs0_NtCsgK501w16GVc_8niri_bar4niriNtB5_7NiriBus5reset
FNDA:7,_RNvMs_NtCsgK501w16GVc_8niri_bar4niriNtB4_7NiriBus11handle_json
FNDA:1,_RNvMs_NtCsgK501w16GVc_8niri_bar4niriNtB4_7NiriBus13current_title
FNDA:7,_RNvMs_NtCsgK501w16GVc_8niri_bar4niriNtB4_7NiriBus16handle_json_line
FNDA:0,_RNvMs_NtCsgK501w16GVc_8niri_bar4niriNtB4_7NiriBus20ingest_window_object
FNDA:1,_RNvMs_NtCsgK501w16GVc_8niri_bar4niriNtB4_7NiriBus20ingest_windows_array
FNDA:3,_RNvMs_NtCsgK501w16GVc_8niri_bar4niriNtB4_7NiriBus21queue_broadcast_title
FNDA:1,_RNvMs_NtCsgK501w16GVc_8niri_bar4niriNtB4_7NiriBus3new
FNDA:0,_RNvNtCsgK501w16GVc_8niri_bar4niri17send_json_request
FNDA:0,_RNvNtCsgK501w16GVc_8niri_bar4niri21focus_workspace_index
FNDA:3,_RNvNtCsgK501w16GVc_8niri_bar4niri8niri_bus
FNDA:0,_RNCNCNCNvMs_NtCsgmIDG9vGii7_8niri_bar4niriNtBa_7NiriBus11handle_jsonsn_000Bc_
FNDA:0,_RNCNCNvMs_NtCsgmIDG9vGii7_8niri_bar4niriNtB8_7NiriBus11handle_jsonsn_00Ba_
FNDA:0,_RNCNvMNtCsgmIDG9vGii7_8niri_bar4niriNtB4_7NiriIpc18start_event_stream0B6_
FNDA:0,_RNCNvMs0_NtCsgmIDG9vGii7_8niri_bar4niriNtB7_7NiriBus16is_overview_open0B9_
FNDA:0,_RNCNvMs0_NtCsgmIDG9vGii7_8niri_bar4niriNtB7_7NiriBus25keyboard_layouts_snapshot0B9_
FNDA:0,_RNCNvMs0_NtCsgmIDG9vGii7_8niri_bar4niriNtB7_7NiriBus25keyboard_layouts_snapshots_0B9_
FNDA:0,_RNCNvMs_NtCsgmIDG9vGii7_8niri_bar4niriNtB6_7NiriBus11handle_json0B8_
FNDA:0,_RNCNvMs_NtCsgmIDG9vGii7_8niri_bar4niriNtB6_7NiriBus11handle_jsons0_0B8_
FNDA:0,_RNCNvMs_NtCsgmIDG9vGii7_8niri_bar4niriNtB6_7NiriBus11handle_jsons1_0B8_
FNDA:0,_RNCNvMs_NtCsgmIDG9vGii7_8niri_bar4niriNtB6_7NiriBus11handle_jsons2_0B8_
FNDA:0,_RNCNvMs_NtCsgmIDG9vGii7_8niri_bar4niriNtB6_7NiriBus11handle_jsons3_0B8_
FNDA:0,_RNCNvMs_NtCsgmIDG9vGii7_8niri_bar4niriNtB6_7NiriBus11handle_jsons4_0B8_
FNDA:0,_RNCNvMs_NtCsgmIDG9vGii7_8niri_bar4niriNtB6_7NiriBus11handle_jsons5_0B8_
FNDA:0,_RNCNvMs_NtCsgmIDG9vGii7_8niri_bar4niriNtB6_7NiriBus11handle_jsons6_0B8_
FNDA:0,_RNCNvMs_NtCsgmIDG9vGii7_8niri_bar4niriNtB6_7NiriBus11handle_jsons7_0B8_
FNDA:0,_RNCNvMs_NtCsgmIDG9vGii7_8niri_bar4niriNtB6_7NiriBus11handle_jsons8_0B8_
FNDA:0,_RNCNvMs_NtCsgmIDG9vGii7_8niri_bar4niriNtB6_7NiriBus11handle_jsons9_0B8_
FNDA:0,_RNCNvMs_NtCsgmIDG9vGii7_8niri_bar4niriNtB6_7NiriBus11handle_jsons_0B8_
FNDA:0,_RNCNvMs_NtCsgmIDG9vGii7_8niri_bar4niriNtB6_7NiriBus11handle_jsonsa_0B8_
FNDA:0,_RNCNvMs_NtCsgmIDG9vGii7_8niri_bar4niriNtB6_7NiriBus11handle_jsonsb_0B8_
FNDA:0,_RNCNvMs_NtCsgmIDG9vGii7_8niri_bar4niriNtB6_7NiriBus11handle_jsonsc_0B8_
FNDA:0,_RNCNvMs_NtCsgmIDG9vGii7_8niri_bar4niriNtB6_7NiriBus11handle_jsonsd_0B8_
FNDA:0,_RNCNvMs_NtCsgmIDG9vGii7_8niri_bar4niriNtB6_7NiriBus11handle_jsonse_0B8_
FNDA:0,_RNCNvMs_NtCsgmIDG9vGii7_8niri_bar4niriNtB6_7NiriBus11handle_jsonsf_0B8_
FNDA:0,_RNCNvMs_NtCsgmIDG9vGii7_8niri_bar4niriNtB6_7NiriBus11handle_jsonsg_0B8_
FNDA:0,_RNCNvMs_NtCsgmIDG9vGii7_8niri_bar4niriNtB6_7NiriBus11handle_jsonsh_0B8_
FNDA:0,_RNCNvMs_NtCsgmIDG9vGii7_8niri_bar4niriNtB6_7NiriBus11handle_jsonsi_0B8_
FNDA:0,_RNCNvMs_NtCsgmIDG9vGii7_8niri_bar4niriNtB6_7NiriBus11handle_jsonsk_0B8_
FNDA:0,_RNCNvMs_NtCsgmIDG9vGii7_8niri_bar4niriNtB6_7NiriBus11handle_jsonsl_0B8_
FNDA:0,_RNCNvMs_NtCsgmIDG9vGii7_8niri_bar4niriNtB6_7NiriBus11handle_jsonsm_0B8_
FNDA:0,_RNCNvMs_NtCsgmIDG9vGii7_8niri_bar4niriNtB6_7NiriBus11handle_jsonsn_0B8_
FNDA:0,_RNCNvMs_NtCsgmIDG9vGii7_8niri_bar4niriNtB6_7NiriBus11handle_jsonso_0B8_
FNDA:0,_RNCNvMs_NtCsgmIDG9vGii7_8niri_bar4niriNtB6_7NiriBus11handle_jsonsp_0B8_
FNDA:0,_RNCNvMs_NtCsgmIDG9vGii7_8niri_bar4niriNtB6_7NiriBus11handle_jsonsq_0B8_
FNDA:0,_RNCNvMs_NtCsgmIDG9vGii7_8niri_bar4niriNtB6_7NiriBus11handle_jsonsr_0B8_
FNDA:0,_RNCNvMs_NtCsgmIDG9vGii7_8niri_bar4niriNtB6_7NiriBus20ingest_window_object0B8_
FNDA:0,_RNCNvMs_NtCsgmIDG9vGii7_8niri_bar4niriNtB6_7NiriBus20ingest_window_objects_0B8_
FNDA:0,_RNCNvMs_NtCsgmIDG9vGii7_8niri_bar4niriNtB6_7NiriBus20ingest_windows_array0B8_
FNDA:0,_RNCNvMs_NtCsgmIDG9vGii7_8niri_bar4niriNtB6_7NiriBus20ingest_windows_arrays0_0B8_
FNDA:0,_RNCNvMs_NtCsgmIDG9vGii7_8niri_bar4niriNtB6_7NiriBus20ingest_windows_arrays_0B8_
FNDA:0,_RNvMNtCsgmIDG9vGii7_8niri_bar4niriNtB2_7NiriIpc18start_event_stream
FNDA:0,_RNvMs0_NtCsgmIDG9vGii7_8niri_bar4niriNtB5_7NiriBus16is_overview_open
FNDA:0,_RNvMs0_NtCsgmIDG9vGii7_8niri_bar4niriNtB5_7NiriBus22next_prev_workspace_id
FNDA:0,_RNvMs0_NtCsgmIDG9vGii7_8niri_bar4niriNtB5_7NiriBus23focused_workspace_index
FNDA:0,_RNvMs0_NtCsgmIDG9vGii7_8niri_bar4niriNtB5_7NiriBus25keyboard_layouts_snapshot
FNDA:0,_RNvMs0_NtCsgmIDG9vGii7_8niri_bar4niriNtB5_7NiriBus5reset
FNDA:0,_RNvMs_NtCsgmIDG9vGii7_8niri_bar4niriNtB4_7NiriBus11handle_json
FNDA:0,_RNvMs_NtCsgmIDG9vGii7_8niri_bar4niriNtB4_7NiriBus16handle_json_line
FNDA:0,_RNvMs_NtCsgmIDG9vGii7_8niri_bar4niriNtB4_7NiriBus20ingest_window_object
FNDA:0,_RNvMs_NtCsgmIDG9vGii7_8niri_bar4niriNtB4_7NiriBus20ingest_windows_array
FNDA:0,_RNvMs_NtCsgmIDG9vGii7_8niri_bar4niriNtB4_7NiriBus21queue_broadcast_title
FNDA:0,_RNCNvMNtCsgmIDG9vGii7_8niri_bar4niriNtB4_7NiriIpc12send_request0B6_
FNDA:0,_RNCNvMNtCsgmIDG9vGii7_8niri_bar4niriNtB4_7NiriIpc3new0B6_
FNDA:0,_RNCNvMs0_NtCsgmIDG9vGii7_8niri_bar4niriNtB7_7NiriBus19workspaces_snapshot0B9_
FNDA:0,_RNCNvMs_NtCsgmIDG9vGii7_8niri_bar4niriNtB6_7NiriBus13current_title0B8_
FNDA:0,_RNCNvNtCsgmIDG9vGii7_8niri_bar4niri8NIRI_BUS0B5_
FNDA:0,_RNvMNtCsgmIDG9vGii7_8niri_bar4niriNtB2_7NiriIpc12send_request
FNDA:0,_RNvMNtCsgmIDG9vGii7_8niri_bar4niriNtB2_7NiriIpc3new
FNDA:0,_RNvMs0_NtCsgmIDG9vGii7_8niri_bar4niriNtB5_7NiriBus19workspaces_snapshot
FNDA:0,_RNvMs0_NtCsgmIDG9vGii7_8niri_bar4niriNtB5_7NiriBus23next_prev_workspace_idx
FNDA:0,_RNvMs_NtCsgmIDG9vGii7_8niri_bar4niriNtB4_7NiriBus13current_title
FNDA:0,_RNvMs_NtCsgmIDG9vGii7_8niri_bar4niriNtB4_7NiriBus3new
FNDA:0,_RNvNtCsgmIDG9vGii7_8niri_bar4niri17send_json_request
FNDA:0,_RNvNtCsgmIDG9vGii7_8niri_bar4niri21focus_workspace_index
FNDA:0,_RNvNtCsgmIDG9vGii7_8niri_bar4niri8niri_bus
FNF:65
FNH:42
DA:19,0
DA:20,0
DA:21,0
DA:22,0
DA:26,0
DA:27,0
DA:28,0
DA:29,0
DA:30,0
DA:31,0
DA:32,0
DA:33,0
DA:34,0
DA:35,0
DA:36,0
DA:37,0
DA:38,0
DA:39,0
DA:40,0
DA:41,0
DA:42,0
DA:43,0
DA:44,0
DA:45,0
DA:46,0
DA:47,0
DA:48,0
DA:49,0
DA:54,0
DA:56,0
DA:57,0
DA:58,0
DA:61,0
DA:62,0
DA:63,0
DA:64,0
DA:65,0
DA:66,0
DA:67,0
DA:68,0
DA:69,0
DA:70,0
DA:71,0
DA:72,0
DA:73,0
DA:74,0
DA:102,1
DA:103,1
DA:104,1
DA:105,1
DA:106,1
DA:107,1
DA:108,1
DA:109,1
DA:110,1
DA:111,1
DA:113,1
DA:114,1
DA:115,1
DA:116,1
DA:117,1
DA:119,1
DA:120,0
DA:121,0
DA:122,1
DA:125,3
DA:127,7
DA:129,7
DA:130,7
DA:131,0
DA:133,7
DA:135,7
DA:136,7
DA:137,7
DA:138,1
DA:139,1
DA:140,1
DA:141,1
DA:142,1
DA:143,1
DA:144,1
DA:145,6
DA:146,0
DA:147,0
DA:148,0
DA:149,0
DA:150,0
DA:151,0
DA:152,0
DA:153,6
DA:154,0
DA:155,0
DA:156,0
DA:157,0
DA:159,0
DA:160,0
DA:161,0
DA:163,0
DA:164,0
DA:165,0
DA:166,0
DA:167,0
DA:168,0
DA:169,0
DA:170,6
DA:172,0
DA:173,0
DA:174,0
DA:175,0
DA:176,0
DA:177,0
DA:179,0
DA:181,0
DA:182,0
DA:183,0
DA:184,0
DA:185,0
DA:186,0
DA:187,6
DA:189,0
DA:190,0
DA:191,0
DA:192,0
DA:193,0
DA:194,0
DA:196,0
DA:198,0
DA:199,0
DA:200,0
DA:201,0
DA:202,0
DA:203,0
DA:204,6
DA:206,1
DA:207,1
DA:208,1
DA:209,1
DA:210,1
DA:212,3
DA:213,3
DA:214,3
DA:216,0
DA:217,5
DA:219,2
DA:220,2
DA:221,2
DA:222,2
DA:224,2
DA:225,2
DA:226,4
DA:227,4
DA:228,4
DA:229,4
DA:230,4
DA:231,4
DA:232,4
DA:233,4
DA:234,4
DA:235,4
DA:236,4
DA:237,4
DA:238,4
DA:239,4
DA:240,4
DA:241,4
DA:242,4
DA:243,4
DA:244,4
DA:245,4
DA:246,4
DA:247,2
DA:248,2
DA:249,2
DA:250,2
DA:251,1
DA:253,1
DA:255,2
DA:256,2
DA:257,2
DA:258,2
DA:259,0
DA:261,2
DA:262,2
DA:263,2
DA:264,2
DA:265,2
DA:266,2
DA:267,2
DA:268,2
DA:269,2
DA:270,0
DA:271,0
DA:272,3
DA:274,1
DA:275,1
DA:276,1
DA:277,1
DA:279,1
DA:280,1
DA:281,1
DA:282,1
DA:283,1
DA:284,2
DA:285,1
DA:286,1
DA:287,1
DA:288,1
DA:289,1
DA:290,1
DA:291,1
DA:292,1
DA:293,1
DA:294,1
DA:295,1
DA:296,1
DA:297,1
DA:298,0
DA:299,2
DA:301,2
DA:302,2
DA:303,2
DA:304,2
DA:305,2
DA:306,2
DA:307,2
DA:308,2
DA:309,0
DA:310,0
DA:311,7
DA:313,1
DA:314,1
DA:316,1
DA:317,1
DA:318,1
DA:319,1
DA:320,1
DA:321,1
DA:324,1
DA:325,1
DA:326,1
DA:327,1
DA:328,1
DA:329,1
DA:330,1
DA:333,1
DA:334,1
DA:335,1
DA:336,1
DA:337,1
DA:338,0
DA:340,0
DA:343,1
DA:344,1
DA:345,1
DA:346,1
DA:347,1
DA:349,1
DA:350,1
DA:352,0
DA:353,0
DA:354,0
DA:355,0
DA:357,0
DA:358,0
DA:359,0
DA:360,0
DA:361,0
DA:362,0
DA:363,0
DA:364,0
DA:365,0
DA:366,0
DA:367,0
DA:368,0
DA:371,1
DA:373,3
DA:374,3
DA:375,3
DA:378,1
DA:379,1
DA:380,1
DA:381,1
DA:382,1
DA:383,1
DA:385,0
DA:386,0
DA:387,0
DA:388,0
DA:389,0
DA:390,0
DA:392,0
DA:393,0
DA:395,0
DA:396,0
DA:397,0
DA:398,0
DA:399,0
DA:400,0
DA:401,0
DA:402,0
DA:403,0
DA:404,0
DA:405,0
DA:407,0
DA:408,0
DA:409,0
DA:410,0
DA:411,0
DA:413,0
DA:415,0
DA:416,0
DA:417,0
DA:418,0
DA:420,0
DA:422,0
DA:424,0
DA:425,0
DA:426,0
DA:427,0
DA:428,0
DA:429,0
DA:430,0
DA:431,0
DA:432,0
DA:433,0
DA:434,0
DA:436,0
DA:437,0
DA:438,0
DA:439,0
DA:440,0
DA:442,0
DA:444,0
DA:445,0
DA:446,0
DA:447,0
DA:449,0
DA:451,0
DA:454,1
DA:455,1
DA:456,1
DA:457,1
DA:458,1
DA:459,1
DA:460,1
DA:461,1
DA:462,1
DA:463,1
DA:464,1
DA:465,1
DA:466,1
DA:469,2
DA:470,2
DA:471,2
DA:474,2
DA:475,2
DA:476,2
DA:477,2
DA:478,2
DA:479,2
DA:480,2
DA:481,2
DA:482,2
DA:483,2
DA:484,2
DA:485,2
DA:486,2
DA:487,2
DA:488,2
DA:489,2
DA:490,2
DA:491,2
DA:492,2
DA:493,2
DA:497,0
DA:498,0
DA:499,0
DA:500,0
DA:503,0
DA:504,0
DA:505,0
DA:508,0
DA:509,0
BRF:0
BRH:0
LF:427
LH:229
end_of_record
SF:/home/rayben/Dropbox/PC/cachygram/niri-bar/src/ui.rs
FN:102,_RNvMNtCsgmIDG9vGii7_8niri_bar2uiNtB2_10MonitorBar12monitor_name
FN:17,_RNvMNtCsgmIDG9vGii7_8niri_bar2uiNtB2_10MonitorBar3new
FN:97,_RNvMNtCsgmIDG9vGii7_8niri_bar2uiNtB2_10MonitorBar4hide
FN:92,_RNvMNtCsgmIDG9vGii7_8niri_bar2uiNtB2_10MonitorBar4show
FN:70,_RNvMNtCsgmIDG9vGii7_8niri_bar2uiNtB2_10MonitorBar9add_label
FN:123,_RNvMs_NtCsgmIDG9vGii7_8niri_bar2uiNtB4_9UIManager10initialize
FN:209,_RNvMs_NtCsgmIDG9vGii7_8niri_bar2uiNtB4_9UIManager13monitor_names
FN:199,_RNvMs_NtCsgmIDG9vGii7_8niri_bar2uiNtB4_9UIManager18update_from_config
FN:133,_RNvMs_NtCsgmIDG9vGii7_8niri_bar2uiNtB4_9UIManager22create_bars_for_config
FN:115,_RNvMs_NtCsgmIDG9vGii7_8niri_bar2uiNtB4_9UIManager3new
FN:204,_RNvMs_NtCsgmIDG9vGii7_8niri_bar2uiNtB4_9UIManager9bar_count
FN:102,_RNvMNtCsgK501w16GVc_8niri_bar2uiNtB2_10MonitorBar12monitor_name
FN:17,_RNvMNtCsgK501w16GVc_8niri_bar2uiNtB2_10MonitorBar3new
FN:97,_RNvMNtCsgK501w16GVc_8niri_bar2uiNtB2_10MonitorBar4hide
FN:92,_RNvMNtCsgK501w16GVc_8niri_bar2uiNtB2_10MonitorBar4show
FN:70,_RNvMNtCsgK501w16GVc_8niri_bar2uiNtB2_10MonitorBar9add_label
FN:123,_RNvMs_NtCsgK501w16GVc_8niri_bar2uiNtB4_9UIManager10initialize
FN:209,_RNvMs_NtCsgK501w16GVc_8niri_bar2uiNtB4_9UIManager13monitor_names
FN:199,_RNvMs_NtCsgK501w16GVc_8niri_bar2uiNtB4_9UIManager18update_from_config
FN:133,_RNvMs_NtCsgK501w16GVc_8niri_bar2uiNtB4_9UIManager22create_bars_for_config
FN:115,_RNvMs_NtCsgK501w16GVc_8niri_bar2uiNtB4_9UIManager3new
FN:204,_RNvMs_NtCsgK501w16GVc_8niri_bar2uiNtB4_9UIManager9bar_count
FNDA:0,_RNvMNtCsgmIDG9vGii7_8niri_bar2uiNtB2_10MonitorBar12monitor_name
FNDA:0,_RNvMNtCsgmIDG9vGii7_8niri_bar2uiNtB2_10MonitorBar3new
FNDA:0,_RNvMNtCsgmIDG9vGii7_8niri_bar2uiNtB2_10MonitorBar4hide
FNDA:0,_RNvMNtCsgmIDG9vGii7_8niri_bar2uiNtB2_10MonitorBar4show
FNDA:0,_RNvMNtCsgmIDG9vGii7_8niri_bar2uiNtB2_10MonitorBar9add_label
FNDA:0,_RNvMs_NtCsgmIDG9vGii7_8niri_bar2uiNtB4_9UIManager10initialize
FNDA:0,_RNvMs_NtCsgmIDG9vGii7_8niri_bar2uiNtB4_9UIManager13monitor_names
FNDA:0,_RNvMs_NtCsgmIDG9vGii7_8niri_bar2uiNtB4_9UIManager18update_from_config
FNDA:0,_RNvMs_NtCsgmIDG9vGii7_8niri_bar2uiNtB4_9UIManager22create_bars_for_config
FNDA:0,_RNvMs_NtCsgmIDG9vGii7_8niri_bar2uiNtB4_9UIManager3new
FNDA:0,_RNvMs_NtCsgmIDG9vGii7_8niri_bar2uiNtB4_9UIManager9bar_count
FNDA:0,_RNvMNtCsgK501w16GVc_8niri_bar2uiNtB2_10MonitorBar12monitor_name
FNDA:0,_RNvMNtCsgK501w16GVc_8niri_bar2uiNtB2_10MonitorBar3new
FNDA:0,_RNvMNtCsgK501w16GVc_8niri_bar2uiNtB2_10MonitorBar4hide
FNDA:0,_RNvMNtCsgK501w16GVc_8niri_bar2uiNtB2_10MonitorBar4show
FNDA:0,_RNvMNtCsgK501w16GVc_8niri_bar2uiNtB2_10MonitorBar9add_label
FNDA:0,_RNvMs_NtCsgK501w16GVc_8niri_bar2uiNtB4_9UIManager10initialize
FNDA:0,_RNvMs_NtCsgK501w16GVc_8niri_bar2uiNtB4_9UIManager13monitor_names
FNDA:0,_RNvMs_NtCsgK501w16GVc_8niri_bar2uiNtB4_9UIManager18update_from_config
FNDA:0,_RNvMs_NtCsgK501w16GVc_8niri_bar2uiNtB4_9UIManager22create_bars_for_config
FNDA:1,_RNvMs_NtCsgK501w16GVc_8niri_bar2uiNtB4_9UIManager3new
FNDA:1,_RNvMs_NtCsgK501w16GVc_8niri_bar2uiNtB4_9UIManager9bar_count
FNF:11
FNH:2
DA:17,0
DA:19,0
DA:22,0
DA:23,0
DA:24,0
DA:25,0
DA:26,0
DA:27,0
DA:28,0
DA:29,0
DA:35,0
DA:36,0
DA:37,0
DA:38,0
DA:39,0
DA:42,0
DA:43,0
DA:44,0
DA:45,0
DA:46,0
DA:47,0
DA:48,0
DA:49,0
DA:50,0
DA:53,0
DA:54,0
DA:55,0
DA:60,0
DA:62,0
DA:63,0
DA:64,0
DA:65,0
DA:66,0
DA:67,0
DA:70,0
DA:71,0
DA:73,0
DA:74,0
DA:75,0
DA:76,0
DA:77,0
DA:78,0
DA:79,0
DA:80,0
DA:81,0
DA:82,0
DA:83,0
DA:84,0
DA:85,0
DA:86,0
DA:87,0
DA:89,0
DA:92,0
DA:93,0
DA:94,0
DA:97,0
DA:98,0
DA:99,0
DA:102,0
DA:103,0
DA:104,0
DA:115,1
DA:116,1
DA:117,1
DA:118,1
DA:119,1
DA:120,1
DA:123,0
DA:125,0
DA:126,0
DA:127,0
DA:129,0
DA:130,0
DA:133,0
DA:135,0
DA:142,0
DA:143,0
DA:144,0
DA:145,0
DA:149,0
DA:152,0
DA:155,0
DA:156,0
DA:157,0
DA:158,0
DA:159,0
DA:160,0
DA:161,0
DA:162,0
DA:163,0
DA:164,0
DA:165,0
DA:166,0
DA:167,0
DA:168,0
DA:169,0
DA:170,0
DA:171,0
DA:172,0
DA:173,0
DA:174,0
DA:175,0
DA:176,0
DA:180,0
DA:183,0
DA:186,0
DA:189,0
DA:190,0
DA:191,0
DA:192,0
DA:195,0
DA:196,0
DA:199,0
DA:200,0
DA:201,0
DA:204,1
DA:205,1
DA:206,1
DA:209,0
DA:210,0
DA:211,0
BRF:0
BRH:0
LF:121
LH:9
end_of_record
SF:/home/rayben/Dropbox/PC/cachygram/niri-bar/src/wallpaper.rs
FN:250,_RNCNCNvMs1_NtCsgK501w16GVc_8niri_bar9wallpaperINtB9_17WallpaperSwitcherpE23apply_wallpaper_command00Bb_
FN:158,_RNCNvMs1_NtCsgK501w16GVc_8niri_bar9wallpaperINtB7_17WallpaperSwitcherpE22resolve_wallpaper_path0B9_
FN:246,_RNCNvMs1_NtCsgK501w16GVc_8niri_bar9wallpaperINtB7_17WallpaperSwitcherpE23apply_wallpaper_command0B9_
FN:299,_RNvMs1_NtCsgK501w16GVc_8niri_bar9wallpaperINtB5_17WallpaperSwitcherpE12expand_tildeB7_
FN:84,_RNvMs1_NtCsgK501w16GVc_8niri_bar9wallpaperINtB5_17WallpaperSwitcherpE12get_executorB7_
FN:125,_RNvMs1_NtCsgK501w16GVc_8niri_bar9wallpaperINtB5_17WallpaperSwitcherpE16switch_wallpaperB7_
FN:150,_RNvMs1_NtCsgK501w16GVc_8niri_bar9wallpaperINtB5_17WallpaperSwitcherpE22resolve_wallpaper_pathB7_
FN:164,_RNvMs1_NtCsgK501w16GVc_8niri_bar9wallpaperINtB5_17WallpaperSwitcherpE23apply_wallpaper_commandB7_
FN:89,_RNvMs1_NtCsgK501w16GVc_8niri_bar9wallpaperINtB5_17WallpaperSwitcherpE23new_default_with_configB7_
FN:284,_RNvMs1_NtCsgK501w16GVc_8niri_bar9wallpaperINtB5_17WallpaperSwitcherpE25find_in_path_via_executorB7_
FN:52,_RNvMs_NtCsgK501w16GVc_8niri_bar9wallpaperNtB4_17WallpaperSwitcher3newB6_
FN:250,_RNCNCNvMs1_NtCsgmIDG9vGii7_8niri_bar9wallpaperINtB9_17WallpaperSwitcherpE23apply_wallpaper_command00Bb_
FN:158,_RNCNvMs1_NtCsgmIDG9vGii7_8niri_bar9wallpaperINtB7_17WallpaperSwitcherpE22resolve_wallpaper_path0B9_
FN:246,_RNCNvMs1_NtCsgmIDG9vGii7_8niri_bar9wallpaperINtB7_17WallpaperSwitcherpE23apply_wallpaper_command0B9_
FN:77,_RNvMs0_NtCsgmIDG9vGii7_8niri_bar9wallpaperNtB5_17WallpaperSwitcher11new_default
FN:299,_RNvMs1_NtCsgmIDG9vGii7_8niri_bar9wallpaperINtB5_17WallpaperSwitcherpE12expand_tildeB7_
FN:84,_RNvMs1_NtCsgmIDG9vGii7_8niri_bar9wallpaperINtB5_17WallpaperSwitcherpE12get_executorB7_
FN:125,_RNvMs1_NtCsgmIDG9vGii7_8niri_bar9wallpaperINtB5_17WallpaperSwitcherpE16switch_wallpaperB7_
FN:150,_RNvMs1_NtCsgmIDG9vGii7_8niri_bar9wallpaperINtB5_17WallpaperSwitcherpE22resolve_wallpaper_pathB7_
FN:164,_RNvMs1_NtCsgmIDG9vGii7_8niri_bar9wallpaperINtB5_17WallpaperSwitcherpE23apply_wallpaper_commandB7_
FN:89,_RNvMs1_NtCsgmIDG9vGii7_8niri_bar9wallpaperINtB5_17WallpaperSwitcherpE23new_default_with_configB7_
FN:284,_RNvMs1_NtCsgmIDG9vGii7_8niri_bar9wallpaperINtB5_17WallpaperSwitcherpE25find_in_path_via_executorB7_
FN:52,_RNvMs_NtCsgmIDG9vGii7_8niri_bar9wallpaperINtB4_17WallpaperSwitcherpE3newB6_
FN:20,_RNvXNtCsgmIDG9vGii7_8niri_bar9wallpaperNtB2_24DefaultWallpaperExecutorNtB2_24WallpaperCommandExecutor15execute_command
FN:27,_RNvXNtCsgmIDG9vGii7_8niri_bar9wallpaperNtB2_24DefaultWallpaperExecutorNtB2_24WallpaperCommandExecutor17check_path_exists
FN:250,_RNCNCNvMs1_NtCsgK501w16GVc_8niri_bar9wallpaperINtB9_17WallpaperSwitcherNtCskh7MgxqbnpI_15wallpaper_tests21MockWallpaperExecutorE23apply_wallpaper_command00B19_
FN:250,_RNCNCNvMs1_NtCsgK501w16GVc_8niri_bar9wallpaperNtB9_17WallpaperSwitcher23apply_wallpaper_command00Cskh7MgxqbnpI_15wallpaper_tests
FN:158,_RNCNvMs1_NtCsgK501w16GVc_8niri_bar9wallpaperINtB7_17WallpaperSwitcherNtCskh7MgxqbnpI_15wallpaper_tests21MockWallpaperExecutorE22resolve_wallpaper_path0B17_
FN:246,_RNCNvMs1_NtCsgK501w16GVc_8niri_bar9wallpaperINtB7_17WallpaperSwitcherNtCskh7MgxqbnpI_15wallpaper_tests21MockWallpaperExecutorE23apply_wallpaper_command0B17_
FN:158,_RNCNvMs1_NtCsgK501w16GVc_8niri_bar9wallpaperNtB7_17WallpaperSwitcher22resolve_wallpaper_path0Cskh7MgxqbnpI_15wallpaper_tests
FN:246,_RNCNvMs1_NtCsgK501w16GVc_8niri_bar9wallpaperNtB7_17WallpaperSwitcher23apply_wallpaper_command0Cskh7MgxqbnpI_15wallpaper_tests
FN:299,_RNvMs1_NtCsgK501w16GVc_8niri_bar9wallpaperINtB5_17WallpaperSwitcherNtCskh7MgxqbnpI_15wallpaper_tests21MockWallpaperExecutorE12expand_tildeB15_
FN:84,_RNvMs1_NtCsgK501w16GVc_8niri_bar9wallpaperINtB5_17WallpaperSwitcherNtCskh7MgxqbnpI_15wallpaper_tests21MockWallpaperExecutorE12get_executorB15_
FN:125,_RNvMs1_NtCsgK501w16GVc_8niri_bar9wallpaperINtB5_17WallpaperSwitcherNtCskh7MgxqbnpI_15wallpaper_tests21MockWallpaperExecutorE16switch_wallpaperB15_
FN:150,_RNvMs1_NtCsgK501w16GVc_8niri_bar9wallpaperINtB5_17WallpaperSwitcherNtCskh7MgxqbnpI_15wallpaper_tests21MockWallpaperExecutorE22resolve_wallpaper_pathB15_
FN:164,_RNvMs1_NtCsgK501w16GVc_8niri_bar9wallpaperINtB5_17WallpaperSwitcherNtCskh7MgxqbnpI_15wallpaper_tests21MockWallpaperExecutorE23apply_wallpaper_commandB15_
FN:284,_RNvMs1_NtCsgK501w16GVc_8niri_bar9wallpaperINtB5_17WallpaperSwitcherNtCskh7MgxqbnpI_15wallpaper_tests21MockWallpaperExecutorE25find_in_path_via_executorB15_
FN:299,_RNvMs1_NtCsgK501w16GVc_8niri_bar9wallpaperNtB5_17WallpaperSwitcher12expand_tildeCskh7MgxqbnpI_15wallpaper_tests
FN:125,_RNvMs1_NtCsgK501w16GVc_8niri_bar9wallpaperNtB5_17WallpaperSwitcher16switch_wallpaperCskh7MgxqbnpI_15wallpaper_tests
FN:150,_RNvMs1_NtCsgK501w16GVc_8niri_bar9wallpaperNtB5_17WallpaperSwitcher22resolve_wallpaper_pathCskh7MgxqbnpI_15wallpaper_tests
FN:164,_RNvMs1_NtCsgK501w16GVc_8niri_bar9wallpaperNtB5_17WallpaperSwitcher23apply_wallpaper_commandCskh7MgxqbnpI_15wallpaper_tests
FN:89,_RNvMs1_NtCsgK501w16GVc_8niri_bar9wallpaperNtB5_17WallpaperSwitcher23new_default_with_configCskh7MgxqbnpI_15wallpaper_tests
FN:284,_RNvMs1_NtCsgK501w16GVc_8niri_bar9wallpaperNtB5_17WallpaperSwitcher25find_in_path_via_executorCskh7MgxqbnpI_15wallpaper_tests
FN:52,_RNvMs_NtCsgK501w16GVc_8niri_bar9wallpaperINtB4_17WallpaperSwitcherNtCskh7MgxqbnpI_15wallpaper_tests21MockWallpaperExecutorE3newB14_
FN:77,_RNvMs0_NtCsgK501w16GVc_8niri_bar9wallpaperNtB5_17WallpaperSwitcher11new_default
FN:20,_RNvXNtCsgK501w16GVc_8niri_bar9wallpaperNtB2_24DefaultWallpaperExecutorNtB2_24WallpaperCommandExecutor15execute_command
FN:27,_RNvXNtCsgK501w16GVc_8niri_bar9wallpaperNtB2_24DefaultWallpaperExecutorNtB2_24WallpaperCommandExecutor17check_path_exists
FNDA:0,_RNCNCNvMs1_NtCsgK501w16GVc_8niri_bar9wallpaperINtB9_17WallpaperSwitcherpE23apply_wallpaper_command00Bb_
FNDA:0,_RNCNvMs1_NtCsgK501w16GVc_8niri_bar9wallpaperINtB7_17WallpaperSwitcherpE22resolve_wallpaper_path0B9_
FNDA:0,_RNCNvMs1_NtCsgK501w16GVc_8niri_bar9wallpaperINtB7_17WallpaperSwitcherpE23apply_wallpaper_command0B9_
FNDA:0,_RNvMs1_NtCsgK501w16GVc_8niri_bar9wallpaperINtB5_17WallpaperSwitcherpE12expand_tildeB7_
FNDA:0,_RNvMs1_NtCsgK501w16GVc_8niri_bar9wallpaperINtB5_17WallpaperSwitcherpE12get_executorB7_
FNDA:0,_RNvMs1_NtCsgK501w16GVc_8niri_bar9wallpaperINtB5_17WallpaperSwitcherpE16switch_wallpaperB7_
FNDA:0,_RNvMs1_NtCsgK501w16GVc_8niri_bar9wallpaperINtB5_17WallpaperSwitcherpE22resolve_wallpaper_pathB7_
FNDA:0,_RNvMs1_NtCsgK501w16GVc_8niri_bar9wallpaperINtB5_17WallpaperSwitcherpE23apply_wallpaper_commandB7_
FNDA:0,_RNvMs1_NtCsgK501w16GVc_8niri_bar9wallpaperINtB5_17WallpaperSwitcherpE23new_default_with_configB7_
FNDA:0,_RNvMs1_NtCsgK501w16GVc_8niri_bar9wallpaperINtB5_17WallpaperSwitcherpE25find_in_path_via_executorB7_
FNDA:527,_RNvMs_NtCsgK501w16GVc_8niri_bar9wallpaperNtB4_17WallpaperSwitcher3newB6_
FNDA:0,_RNCNCNvMs1_NtCsgmIDG9vGii7_8niri_bar9wallpaperINtB9_17WallpaperSwitcherpE23apply_wallpaper_command00Bb_
FNDA:0,_RNCNvMs1_NtCsgmIDG9vGii7_8niri_bar9wallpaperINtB7_17WallpaperSwitcherpE22resolve_wallpaper_path0B9_
FNDA:0,_RNCNvMs1_NtCsgmIDG9vGii7_8niri_bar9wallpaperINtB7_17WallpaperSwitcherpE23apply_wallpaper_command0B9_
FNDA:0,_RNvMs0_NtCsgmIDG9vGii7_8niri_bar9wallpaperNtB5_17WallpaperSwitcher11new_default
FNDA:0,_RNvMs1_NtCsgmIDG9vGii7_8niri_bar9wallpaperINtB5_17WallpaperSwitcherpE12expand_tildeB7_
FNDA:0,_RNvMs1_NtCsgmIDG9vGii7_8niri_bar9wallpaperINtB5_17WallpaperSwitcherpE12get_executorB7_
FNDA:0,_RNvMs1_NtCsgmIDG9vGii7_8niri_bar9wallpaperINtB5_17WallpaperSwitcherpE16switch_wallpaperB7_
FNDA:0,_RNvMs1_NtCsgmIDG9vGii7_8niri_bar9wallpaperINtB5_17WallpaperSwitcherpE22resolve_wallpaper_pathB7_
FNDA:0,_RNvMs1_NtCsgmIDG9vGii7_8niri_bar9wallpaperINtB5_17WallpaperSwitcherpE23apply_wallpaper_commandB7_
FNDA:0,_RNvMs1_NtCsgmIDG9vGii7_8niri_bar9wallpaperINtB5_17WallpaperSwitcherpE23new_default_with_configB7_
FNDA:0,_RNvMs1_NtCsgmIDG9vGii7_8niri_bar9wallpaperINtB5_17WallpaperSwitcherpE25find_in_path_via_executorB7_
FNDA:0,_RNvMs_NtCsgmIDG9vGii7_8niri_bar9wallpaperINtB4_17WallpaperSwitcherpE3newB6_
FNDA:0,_RNvXNtCsgmIDG9vGii7_8niri_bar9wallpaperNtB2_24DefaultWallpaperExecutorNtB2_24WallpaperCommandExecutor15execute_command
FNDA:0,_RNvXNtCsgmIDG9vGii7_8niri_bar9wallpaperNtB2_24DefaultWallpaperExecutorNtB2_24WallpaperCommandExecutor17check_path_exists
FNDA:1,_RNCNCNvMs1_NtCsgK501w16GVc_8niri_bar9wallpaperINtB9_17WallpaperSwitcherNtCskh7MgxqbnpI_15wallpaper_tests21MockWallpaperExecutorE23apply_wallpaper_command00B19_
FNDA:594,_RNCNCNvMs1_NtCsgK501w16GVc_8niri_bar9wallpaperNtB9_17WallpaperSwitcher23apply_wallpaper_command00Cskh7MgxqbnpI_15wallpaper_tests
FNDA:3,_RNCNvMs1_NtCsgK501w16GVc_8niri_bar9wallpaperINtB7_17WallpaperSwitcherNtCskh7MgxqbnpI_15wallpaper_tests21MockWallpaperExecutorE22resolve_wallpaper_path0B17_
FNDA:1,_RNCNvMs1_NtCsgK501w16GVc_8niri_bar9wallpaperINtB7_17WallpaperSwitcherNtCskh7MgxqbnpI_15wallpaper_tests21MockWallpaperExecutorE23apply_wallpaper_command0B17_
FNDA:281,_RNCNvMs1_NtCsgK501w16GVc_8niri_bar9wallpaperNtB7_17WallpaperSwitcher22resolve_wallpaper_path0Cskh7MgxqbnpI_15wallpaper_tests
FNDA:594,_RNCNvMs1_NtCsgK501w16GVc_8niri_bar9wallpaperNtB7_17WallpaperSwitcher23apply_wallpaper_command0Cskh7MgxqbnpI_15wallpaper_tests
FNDA:3,_RNvMs1_NtCsgK501w16GVc_8niri_bar9wallpaperINtB5_17WallpaperSwitcherNtCskh7MgxqbnpI_15wallpaper_tests21MockWallpaperExecutorE12expand_tildeB15_
FNDA:3,_RNvMs1_NtCsgK501w16GVc_8niri_bar9wallpaperINtB5_17WallpaperSwitcherNtCskh7MgxqbnpI_15wallpaper_tests21MockWallpaperExecutorE12get_executorB15_
FNDA:3,_RNvMs1_NtCsgK501w16GVc_8niri_bar9wallpaperINtB5_17WallpaperSwitcherNtCskh7MgxqbnpI_15wallpaper_tests21MockWallpaperExecutorE16switch_wallpaperB15_
FNDA:3,_RNvMs1_NtCsgK501w16GVc_8niri_bar9wallpaperINtB5_17WallpaperSwitcherNtCskh7MgxqbnpI_15wallpaper_tests21MockWallpaperExecutorE22resolve_wallpaper_pathB15_
FNDA:3,_RNvMs1_NtCsgK501w16GVc_8niri_bar9wallpaperINtB5_17WallpaperSwitcherNtCskh7MgxqbnpI_15wallpaper_tests21MockWallpaperExecutorE23apply_wallpaper_commandB15_
FNDA:3,_RNvMs1_NtCsgK501w16GVc_8niri_bar9wallpaperINtB5_17WallpaperSwitcherNtCskh7MgxqbnpI_15wallpaper_tests21MockWallpaperExecutorE25find_in_path_via_executorB15_
FNDA:906,_RNvMs1_NtCsgK501w16GVc_8niri_bar9wallpaperNtB5_17WallpaperSwitcher12expand_tildeCskh7MgxqbnpI_15wallpaper_tests
FNDA:907,_RNvMs1_NtCsgK501w16GVc_8niri_bar9wallpaperNtB5_17WallpaperSwitcher16switch_wallpaperCskh7MgxqbnpI_15wallpaper_tests
FNDA:907,_RNvMs1_NtCsgK501w16GVc_8niri_bar9wallpaperNtB5_17WallpaperSwitcher22resolve_wallpaper_pathCskh7MgxqbnpI_15wallpaper_tests
FNDA:906,_RNvMs1_NtCsgK501w16GVc_8niri_bar9wallpaperNtB5_17WallpaperSwitcher23apply_wallpaper_commandCskh7MgxqbnpI_15wallpaper_tests
FNDA:1,_RNvMs1_NtCsgK501w16GVc_8niri_bar9wallpaperNtB5_17WallpaperSwitcher23new_default_with_configCskh7MgxqbnpI_15wallpaper_tests
FNDA:594,_RNvMs1_NtCsgK501w16GVc_8niri_bar9wallpaperNtB5_17WallpaperSwitcher25find_in_path_via_executorCskh7MgxqbnpI_15wallpaper_tests
FNDA:3,_RNvMs_NtCsgK501w16GVc_8niri_bar9wallpaperINtB4_17WallpaperSwitcherNtCskh7MgxqbnpI_15wallpaper_tests21MockWallpaperExecutorE3newB14_
FNDA:526,_RNvMs0_NtCsgK501w16GVc_8niri_bar9wallpaperNtB5_17WallpaperSwitcher11new_default
FNDA:896,_RNvXNtCsgK501w16GVc_8niri_bar9wallpaperNtB2_24DefaultWallpaperExecutorNtB2_24WallpaperCommandExecutor15execute_command
FNDA:2376,_RNvXNtCsgK501w16GVc_8niri_bar9wallpaperNtB2_24DefaultWallpaperExecutorNtB2_24WallpaperCommandExecutor17check_path_exists
FNF:14
FNH:14
DA:20,896
DA:23,896
DA:24,896
DA:25,896
DA:27,2376
DA:28,2376
DA:29,2376
DA:52,530
DA:53,530
DA:54,530
DA:77,526
DA:78,526
DA:79,526
DA:84,3
DA:85,3
DA:86,3
DA:89,1
DA:90,1
DA:91,1
DA:92,1
DA:93,1
DA:125,910
DA:126,910
DA:127,0
DA:131,910
DA:133,909
DA:134,909
DA:135,0
DA:139,909
DA:141,1
DA:142,0
DA:147,910
DA:150,910
DA:152,910
DA:153,910
DA:155,910
DA:156,910
DA:157,910
DA:158,910
DA:159,910
DA:160,910
DA:161,910
DA:164,909
DA:165,909
DA:166,909
DA:169,909
DA:170,0
DA:175,909
DA:176,313
DA:177,313
DA:179,313
DA:180,313
DA:181,303
DA:182,303
DA:183,303
DA:184,303
DA:185,0
DA:188,0
DA:189,0
DA:195,10
DA:196,0
DA:200,313
DA:201,596
DA:204,596
DA:205,596
DA:206,0
DA:207,0
DA:209,596
DA:210,595
DA:212,595
DA:215,595
DA:216,1
DA:219,1
DA:220,1
DA:221,1
DA:222,1
DA:223,1
DA:224,1
DA:226,1
DA:227,1
DA:228,1
DA:229,1
DA:230,1
DA:231,594
DA:234,595
DA:236,595
DA:237,0
DA:240,595
DA:241,595
DA:242,0
DA:245,595
DA:246,595
DA:247,595
DA:248,595
DA:249,595
DA:250,595
DA:251,595
DA:252,595
DA:253,0
DA:256,595
DA:258,595
DA:259,1
DA:262,1
DA:263,1
DA:264,0
DA:265,0
DA:267,1
DA:268,0
DA:270,0
DA:271,0
DA:272,0
DA:273,0
DA:274,0
DA:276,0
DA:277,1
DA:280,1
DA:281,909
DA:284,597
DA:286,597
DA:287,2406
DA:288,2406
DA:289,2406
DA:290,2406
DA:291,595
DA:292,1811
DA:294,0
DA:295,2
DA:296,597
DA:299,909
DA:300,909
DA:301,1
DA:303,1
DA:305,908
DA:307,909
BRF:0
BRH:0
LF:137
LH:108
end_of_record